	.file	"mf.c"
 # GNU C11 (MinGW.org GCC-6.3.0-1) version 6.3.0 (mingw32)
 #	compiled by GNU C version 6.3.0, GMP version 6.1.2, MPFR version 3.1.5, MPC version 1.0.3, isl version 0.15
 # GGC heuristics: --param ggc-min-expand=100 --param ggc-min-heapsize=131072
 # options passed:  -iprefix c:\mingw\bin\../lib/gcc/mingw32/6.3.0/ mf.c
 # -mtune=generic -march=i586 -g -Ofast -fverbose-asm
 # options enabled:  -faggressive-loop-optimizations -falign-labels
 # -fassociative-math -fasynchronous-unwind-tables -fauto-inc-dec
 # -fbranch-count-reg -fcaller-saves -fchkp-check-incomplete-type
 # -fchkp-check-read -fchkp-check-write -fchkp-instrument-calls
 # -fchkp-narrow-bounds -fchkp-optimize -fchkp-store-bounds
 # -fchkp-use-static-bounds -fchkp-use-static-const-bounds
 # -fchkp-use-wrappers -fcombine-stack-adjustments -fcommon -fcompare-elim
 # -fcprop-registers -fcrossjumping -fcse-follow-jumps -fcx-limited-range
 # -fdefer-pop -fdelete-null-pointer-checks -fdevirtualize
 # -fdevirtualize-speculatively -fdwarf2-cfi-asm -fearly-inlining
 # -feliminate-unused-debug-types -fexpensive-optimizations
 # -ffinite-math-only -fforward-propagate -ffunction-cse -fgcse
 # -fgcse-after-reload -fgcse-lm -fgnu-runtime -fgnu-unique
 # -fguess-branch-probability -fhoist-adjacent-loads -fident
 # -fif-conversion -fif-conversion2 -findirect-inlining -finline
 # -finline-atomics -finline-functions -finline-functions-called-once
 # -finline-small-functions -fipa-cp -fipa-cp-alignment -fipa-cp-clone
 # -fipa-icf -fipa-icf-functions -fipa-icf-variables -fipa-profile
 # -fipa-pure-const -fipa-ra -fipa-reference -fipa-sra -fira-hoist-pressure
 # -fira-share-save-slots -fira-share-spill-slots
 # -fisolate-erroneous-paths-dereference -fivopts -fkeep-inline-dllexport
 # -fkeep-static-consts -fleading-underscore -flifetime-dse -flra-remat
 # -flto-odr-type-merging -fmerge-constants -fmerge-debug-strings
 # -fmove-loop-invariants -fomit-frame-pointer -foptimize-sibling-calls
 # -foptimize-strlen -fpartial-inlining -fpeephole -fpeephole2 -fplt
 # -fpredictive-commoning -fprefetch-loop-arrays -freciprocal-math -free
 # -freg-struct-return -freorder-blocks -freorder-functions
 # -frerun-cse-after-loop -fsched-critical-path-heuristic
 # -fsched-dep-count-heuristic -fsched-group-heuristic -fsched-interblock
 # -fsched-last-insn-heuristic -fsched-rank-heuristic -fsched-spec
 # -fsched-spec-insn-heuristic -fsched-stalled-insns-dep -fschedule-fusion
 # -fschedule-insns2 -fsemantic-interposition -fset-stack-executable
 # -fshow-column -fshrink-wrap -fsplit-ivs-in-unroller -fsplit-paths
 # -fsplit-wide-types -fssa-backprop -fssa-phiopt -fstdarg-opt
 # -fstrict-aliasing -fstrict-overflow -fstrict-volatile-bitfields
 # -fsync-libcalls -fthread-jumps -ftoplevel-reorder -ftree-bit-ccp
 # -ftree-builtin-call-dce -ftree-ccp -ftree-ch -ftree-coalesce-vars
 # -ftree-copy-prop -ftree-cselim -ftree-dce -ftree-dominator-opts
 # -ftree-dse -ftree-forwprop -ftree-fre -ftree-loop-distribute-patterns
 # -ftree-loop-if-convert -ftree-loop-im -ftree-loop-ivcanon
 # -ftree-loop-optimize -ftree-loop-vectorize -ftree-parallelize-loops=
 # -ftree-partial-pre -ftree-phiprop -ftree-pre -ftree-pta -ftree-reassoc
 # -ftree-scev-cprop -ftree-sink -ftree-slp-vectorize -ftree-slsr
 # -ftree-sra -ftree-switch-conversion -ftree-tail-merge -ftree-ter
 # -ftree-vrp -funit-at-a-time -funsafe-math-optimizations -funswitch-loops
 # -funwind-tables -fvar-tracking -fvar-tracking-assignments -fverbose-asm
 # -fzero-initialized-in-bss -m32 -m80387 -m96bit-long-double
 # -maccumulate-outgoing-args -malign-double -malign-stringops
 # -mavx256-split-unaligned-load -mavx256-split-unaligned-store
 # -mfancy-math-387 -mfp-ret-in-387 -mlong-double-80 -mms-bitfields
 # -mno-red-zone -mno-sse4 -mpush-args -msahf -mstack-arg-probe -mstv
 # -mvzeroupper

	.text
Ltext0:
	.p2align 4,,15
	.globl	_strcpy_s
	.def	_strcpy_s;	.scl	2;	.type	32;	.endef
_strcpy_s:
LFB70:
	.file 1 "mf.c"
	.loc 1 99 0
	.cfi_startproc
LVL0:
	.loc 1 99 0
	movl	12(%esp), %edx	 # src, src
	movl	4(%esp), %ecx	 # dst, dst
	.loc 1 100 0
	movzbl	(%edx), %eax	 #* src, _14
	testb	%al, %al	 # _14
	je	L1	 #,
LVL1:
	.p2align 4,,10
L5:
	.loc 1 102 0
	addl	$1, %ecx	 #, dst
LVL2:
	addl	$1, %edx	 #, src
LVL3:
	movb	%al, -1(%ecx)	 # _14, MEM[base: dst_8, offset: 4294967295B]
	.loc 1 100 0
	movzbl	(%edx), %eax	 #* src, _14
	testb	%al, %al	 # _14
	jne	L5	 #,
L1:
	rep ret
	.cfi_endproc
LFE70:
	.p2align 4,,15
	.globl	_fopen_s
	.def	_fopen_s;	.scl	2;	.type	32;	.endef
_fopen_s:
LFB71:
	.loc 1 107 0
	.cfi_startproc
LVL4:
	subl	$28, %esp	 #,
	.cfi_def_cfa_offset 32
	.loc 1 108 0
	movl	40(%esp), %eax	 # mode, mode
	movl	%eax, 4(%esp)	 # mode,
	movl	36(%esp), %eax	 # nm, nm
	movl	%eax, (%esp)	 # nm,
	call	_fopen	 #
LVL5:
	.loc 1 109 0
	movl	32(%esp), %edx	 # pfp, pfp
	movl	%eax, (%edx)	 # fp, *pfp_6(D)
	.loc 1 110 0
	addl	$28, %esp	 #,
	.cfi_def_cfa_offset 4
	ret
	.cfi_endproc
LFE71:
	.p2align 4,,15
	.globl	_push
	.def	_push;	.scl	2;	.type	32;	.endef
_push:
LFB72:
	.loc 1 117 0
	.cfi_startproc
LVL6:
	.loc 1 118 0
	movl	_DSP, %eax	 # DSP, tmp92
	addl	$4, %eax	 #, _4
	cmpl	_DSE, %eax	 # DSE, _4
	movl	%eax, _DSP	 # _4, DSP
	jbe	L11	 #,
	.loc 1 119 0
	movl	_DSS, %eax	 # DSS, _4
	movl	%eax, _DSP	 # _4, DSP
L11:
	.loc 1 120 0
	movl	4(%esp), %edx	 # v, v
	movl	%edx, (%eax)	 # v, *prephitmp_12
	ret
	.cfi_endproc
LFE72:
	.p2align 4,,15
	.globl	_pop
	.def	_pop;	.scl	2;	.type	32;	.endef
_pop:
LFB73:
	.loc 1 125 0
	.cfi_startproc
	.loc 1 126 0
	movl	_DSP, %edx	 # DSP, DSP.5_3
	movl	(%edx), %eax	 # *DSP.5_3, <retval>
LVL7:
	.loc 1 127 0
	subl	$4, %edx	 #, _5
	cmpl	_DSS, %edx	 # DSS, _5
	movl	%edx, _DSP	 # _5, DSP
	jnb	L12	 #,
	.loc 1 128 0
	movl	_DSE, %edx	 # DSE, DSE
	movl	%edx, _DSP	 # DSE, DSP
L12:
	.loc 1 130 0
	rep ret
	.cfi_endproc
LFE73:
	.section .rdata,"dr"
LC0:
	.ascii "( \0"
LC1:
	.ascii "%d \0"
	.text
	.p2align 4,,15
	.globl	_dumpStack
	.def	_dumpStack;	.scl	2;	.type	32;	.endef
_dumpStack:
LFB74:
	.loc 1 134 0
	.cfi_startproc
LVL8:
	pushl	%edi	 #
	.cfi_def_cfa_offset 8
	.cfi_offset 7, -8
	pushl	%ebx	 #
	.cfi_def_cfa_offset 12
	.cfi_offset 3, -12
	subl	$20, %esp	 #,
	.cfi_def_cfa_offset 32
	.loc 1 134 0
	movl	32(%esp), %ebx	 # num, num
	.loc 1 136 0
	movl	$LC0, (%esp)	 #,
	.loc 1 135 0
	testl	%ebx, %ebx	 # num
	je	L15	 #,
LVL9:
	.loc 1 136 0 discriminator 4
	call	_printf	 #
LVL10:
LBB131:
	.loc 1 137 0 discriminator 4
	testl	%ebx, %ebx	 # num
	jle	L19	 #,
LVL11:
L16:
LBE131:
	.loc 1 135 0
	xorl	%edi, %edi	 # i
LVL12:
	.p2align 4,,10
L18:
LBB134:
LBB132:
LBB133:
	.loc 1 126 0
	movl	_DSP, %eax	 # DSP, DSP.5_10
	movl	(%eax), %edx	 # *DSP.5_10, v
LVL13:
	.loc 1 127 0
	subl	$4, %eax	 #, _12
	cmpl	_DSS, %eax	 # DSS, _12
	movl	%eax, _DSP	 # _12, DSP
	jnb	L17	 #,
	.loc 1 128 0
	movl	_DSE, %eax	 # DSE, DSE
	movl	%eax, _DSP	 # DSE, DSP
L17:
LVL14:
LBE133:
LBE132:
	.loc 1 138 0
	movl	%edx, 4(%esp)	 # v,
	movl	$LC1, (%esp)	 #,
	.loc 1 137 0
	addl	$1, %edi	 #, i
LVL15:
	.loc 1 138 0
	call	_printf	 #
LVL16:
	.loc 1 137 0
	cmpl	%ebx, %edi	 # num, i
	jl	L18	 #,
LVL17:
L19:
LBE134:
	.loc 1 139 0
	movl	$41, 32(%esp)	 #,
	.loc 1 140 0
	addl	$20, %esp	 #,
	.cfi_remember_state
	.cfi_def_cfa_offset 12
	popl	%ebx	 #
	.cfi_restore 3
	.cfi_def_cfa_offset 8
	popl	%edi	 #
	.cfi_restore 7
	.cfi_def_cfa_offset 4
	.loc 1 139 0
	jmp	_putchar	 #
LVL18:
	.p2align 4,,10
L15:
	.cfi_restore_state
	.loc 1 136 0
	call	_printf	 #
LVL19:
	.loc 1 135 0
	movl	$64, %ebx	 #, num
	jmp	L16	 #
	.cfi_endproc
LFE74:
	.p2align 4,,15
	.globl	_rpush
	.def	_rpush;	.scl	2;	.type	32;	.endef
_rpush:
LFB75:
	.loc 1 146 0
	.cfi_startproc
LVL20:
	.loc 1 147 0
	movl	_RSP, %eax	 # RSP, tmp92
	addl	$4, %eax	 #, _4
	cmpl	_RSE, %eax	 # RSE, _4
	movl	%eax, _RSP	 # _4, RSP
	jbe	L23	 #,
	.loc 1 148 0
	movl	_RSS, %eax	 # RSS, _4
	movl	%eax, _RSP	 # _4, RSP
L23:
	.loc 1 149 0
	movl	4(%esp), %edx	 # v, v
	movl	%edx, (%eax)	 # v, *prephitmp_12
	ret
	.cfi_endproc
LFE75:
	.p2align 4,,15
	.globl	_rpop
	.def	_rpop;	.scl	2;	.type	32;	.endef
_rpop:
LFB76:
	.loc 1 154 0
	.cfi_startproc
	.loc 1 155 0
	movl	_RSP, %edx	 # RSP, RSP.12_3
	movl	(%edx), %eax	 # *RSP.12_3, <retval>
LVL21:
	.loc 1 156 0
	subl	$4, %edx	 #, _5
	cmpl	_RSS, %edx	 # RSS, _5
	movl	%edx, _RSP	 # _5, RSP
	jnb	L24	 #,
	.loc 1 157 0
	movl	_RSE, %edx	 # RSE, RSE
	movl	%edx, _RSP	 # RSE, RSP
L24:
	.loc 1 159 0
	rep ret
	.cfi_endproc
LFE76:
	.section .rdata,"dr"
LC2:
	.ascii "%c\0"
LC3:
	.ascii "-UNTIL-\0"
LC4:
	.ascii "-UNTIL_NEG-\0"
LC5:
	.ascii "-INVERT-\0"
	.align 4
LC6:
	.ascii "Unknown IR (%02x) at PC=%08lx.\0"
	.text
	.p2align 4,,15
	.globl	_run_program
	.def	_run_program;	.scl	2;	.type	32;	.endef
_run_program:
LFB77:
	.loc 1 210 0
	.cfi_startproc
LVL22:
	pushl	%ebp	 #
	.cfi_def_cfa_offset 8
	.cfi_offset 5, -8
	pushl	%edi	 #
	.cfi_def_cfa_offset 12
	.cfi_offset 7, -12
	pushl	%ebx	 #
	.cfi_def_cfa_offset 16
	.cfi_offset 3, -16
	subl	$48, %esp	 #,
	.cfi_def_cfa_offset 64
	.loc 1 215 0
	movl	$1, _call_depth	 #, call_depth
	.loc 1 214 0
	movl	64(%esp), %esi	 # start, PC
LVL23:
	.p2align 4,,10
L27:
	movl	%esi, %ecx	 # PC, PC_lsm0.138
L28:
	leal	1(%ecx), %edx	 #, PC_lsm0.138
	.loc 1 220 0
	movzbl	-1(%edx), %eax	 # MEM[base: 0B, index: _60, offset: 4294967295B],
LVL24:
	movl	%edx, %esi	 # PC_lsm0.138, PC
	.loc 1 221 0
	cmpb	$36, %al	 #, IR
	ja	L29	 #,
	jmp	*L30(,%eax,4)	 #
	.section .rdata,"dr"
	.align 4
L30:
	.long	L108
	.long	L31
	.long	L32
	.long	L33
	.long	L34
	.long	L35
	.long	L36
	.long	L37
	.long	L38
	.long	L39
	.long	L113
	.long	L41
	.long	L42
	.long	L43
	.long	L44
	.long	L45
	.long	L46
	.long	L47
	.long	L48
	.long	L49
	.long	L50
	.long	L51
	.long	L52
	.long	L53
	.long	L54
	.long	L55
	.long	L56
	.long	L57
	.long	L58
	.long	L59
	.long	L60
	.long	L61
	.long	L62
	.long	L63
	.long	L64
	.long	L65
	.long	L26
	.text
	.p2align 4,,10
L29:
	.loc 1 417 0
	movl	%ecx, 8(%esp)	 # PC_lsm0.138,
	.loc 1 221 0
	movl	%eax, 4(%esp)	 # IR,
	.loc 1 417 0
	movl	$LC6, (%esp)	 #,
	call	_printf	 #
LVL25:
L26:
	.loc 1 421 0
	addl	$48, %esp	 #,
	.cfi_remember_state
	.cfi_def_cfa_offset 16
	popl	%ebx	 #
	.cfi_restore 3
	.cfi_def_cfa_offset 12
LVL26:
	popl	%edi	 #
	.cfi_restore 7
	.cfi_def_cfa_offset 8
	popl	%ebp	 #
	.cfi_restore 5
	.cfi_def_cfa_offset 4
	ret
LVL27:
	.p2align 4,,10
L55:
	.cfi_restore_state
	.loc 1 349 0
	movl	_DSP, %eax	 # DSP, DSP
LVL28:
	.loc 1 352 0
	leal	5(%ecx), %esi	 #, PC
	.loc 1 349 0
	movl	(%eax), %eax	 # *DSP.19_14,
	testl	%eax, %eax	 #
	jne	L27	 #,
L113:
	.loc 1 350 0
	movl	(%edx), %esi	 #* PC_lsm0.138, PC
	jmp	L27	 #
LVL29:
	.p2align 4,,10
L108:
	.loc 1 221 0
	movl	%edx, %ecx	 # PC_lsm0.138, PC_lsm0.138
	jmp	L28	 #
	.p2align 4,,10
L65:
	.loc 1 410 0
	movl	_DSP, %eax	 # DSP, DSP.19_32
LVL30:
	shrl	(%eax)	 # *DSP.19_32
LVL31:
	.loc 1 411 0
	jmp	L27	 #
LVL32:
	.p2align 4,,10
L64:
	.loc 1 406 0
	movl	_DSP, %eax	 # DSP, DSP.19_37
LVL33:
	sall	(%eax)	 # *DSP.19_37
LVL34:
	.loc 1 407 0
	jmp	L27	 #
LVL35:
	.p2align 4,,10
L63:
LBB135:
LBB136:
	.loc 1 126 0
	movl	_DSP, %eax	 # DSP, DSP.5_300
LVL36:
	movl	(%eax), %edx	 # *DSP.5_300, v
LVL37:
	.loc 1 127 0
	subl	$4, %eax	 #, _302
	cmpl	_DSS, %eax	 # DSS, _302
	movl	%eax, _DSP	 # _302, DSP
LVL38:
	jnb	L107	 #,
	.loc 1 128 0
	movl	_DSE, %eax	 # DSE, _302
	movl	%eax, _DSP	 # _302, DSP
L107:
LVL39:
LBE136:
LBE135:
	.loc 1 402 0
	xorl	%edx, (%eax)	 # v, *prephitmp_432
	.loc 1 403 0
	jmp	L27	 #
LVL40:
	.p2align 4,,10
L62:
LBB137:
LBB138:
	.loc 1 126 0
	movl	_DSP, %eax	 # DSP, DSP.5_295
LVL41:
	movl	(%eax), %edx	 # *DSP.5_295, v
LVL42:
	.loc 1 127 0
	subl	$4, %eax	 #, _297
	cmpl	_DSS, %eax	 # DSS, _297
	movl	%eax, _DSP	 # _297, DSP
LVL43:
	jnb	L106	 #,
	.loc 1 128 0
	movl	_DSE, %eax	 # DSE, _297
	movl	%eax, _DSP	 # _297, DSP
L106:
LVL44:
LBE138:
LBE137:
	.loc 1 397 0
	andl	%edx, (%eax)	 # v, *prephitmp_422
	.loc 1 398 0
	jmp	L27	 #
LVL45:
	.p2align 4,,10
L46:
LBB139:
LBB140:
	.loc 1 126 0
	movl	_DSP, %ecx	 # DSP, DSP.5_220
	movl	(%ecx), %edi	 # *DSP.5_220, v
LVL46:
	.loc 1 127 0
	subl	$4, %ecx	 #, _222
	cmpl	_DSS, %ecx	 # DSS, _222
	movl	%ecx, _DSP	 # _222, DSP
	jnb	L80	 #,
	.loc 1 128 0
	movl	_DSE, %ecx	 # DSE, _222
	movl	%ecx, _DSP	 # _222, DSP
L80:
LVL47:
LBE140:
LBE139:
	.loc 1 302 0
	movl	(%ecx), %eax	 # *prephitmp_465, *prephitmp_465
LVL48:
	xorl	%edx, %edx	 # tmp307
	divl	%edi	 # v
	movl	%eax, (%ecx)	 # tmp306, *prephitmp_465
	.loc 1 303 0
	jmp	L27	 #
LVL49:
	.p2align 4,,10
L54:
	.loc 1 342 0
	movl	_DSP, %eax	 # DSP, DSP
LVL50:
	.loc 1 345 0
	leal	5(%ecx), %esi	 #, PC
	.loc 1 342 0
	movl	(%eax), %ecx	 # *DSP.19_23,
LVL51:
	testl	%ecx, %ecx	 #
	je	L27	 #,
	.loc 1 350 0
	movl	(%edx), %esi	 #* PC_lsm0.138, PC
LVL52:
	jmp	L27	 #
LVL53:
	.p2align 4,,10
L53:
	.loc 1 338 0
	movl	$LC5, (%esp)	 #,
	call	_printf	 #
LVL54:
	.loc 1 339 0
	jmp	L27	 #
LVL55:
	.p2align 4,,10
L52:
	.loc 1 334 0
	movl	$LC4, (%esp)	 #,
	call	_printf	 #
LVL56:
	.loc 1 335 0
	jmp	L27	 #
LVL57:
	.p2align 4,,10
L51:
	.loc 1 330 0
	movl	$LC3, (%esp)	 #,
	call	_printf	 #
LVL58:
	.loc 1 331 0
	jmp	L27	 #
LVL59:
	.p2align 4,,10
L50:
LBB141:
LBB142:
	.loc 1 126 0
	movl	_DSP, %eax	 # DSP, DSP.5_248
LVL60:
	.loc 1 127 0
	movl	_DSS, %edx	 # DSS, DSS.6_251
	.loc 1 128 0
	movl	_DSE, %ecx	 # DSE, pretmp_425
LVL61:
	.loc 1 126 0
	movl	(%eax), %edi	 # *DSP.5_248, v
LVL62:
	.loc 1 127 0
	subl	$4, %eax	 #, _250
	cmpl	%edx, %eax	 # DSS.6_251, _250
	movl	%eax, _DSP	 # _250, DSP
LVL63:
	jnb	L88	 #,
	.loc 1 128 0
	movl	%ecx, _DSP	 # pretmp_425, DSP
	movl	%ecx, %eax	 # pretmp_425, DSP.19_83
L88:
LVL64:
LBE142:
LBE141:
	.loc 1 324 0
	movl	(%eax), %ebp	 # *DSP.19_83, tmp357
LBB145:
LBB146:
	.loc 1 118 0
	addl	$4, %eax	 #, _245
	cmpl	%ecx, %eax	 # pretmp_425, _245
LBE146:
LBE145:
	.loc 1 324 0
	movl	%ebp, 44(%esp)	 # tmp357, arg2
LBB149:
LBB147:
	.loc 1 118 0
	jbe	L90	 #,
LBE147:
LBE149:
LBB150:
LBB143:
	.loc 1 127 0
	movl	%edx, %eax	 # DSS.6_251, _245
L90:
LBE143:
LBE150:
LBB151:
LBB148:
	.loc 1 120 0
	movl	%edi, (%eax)	 # v, *prephitmp_459
LBE148:
LBE151:
LBB152:
LBB153:
	.loc 1 118 0
	addl	$4, %eax	 #, _243
LBE153:
LBE152:
	.loc 1 326 0
	movl	44(%esp), %edi	 # arg2, arg2.22_86
LVL65:
LBB156:
LBB154:
	.loc 1 118 0
	cmpl	%ecx, %eax	 # pretmp_425, _243
	ja	L91	 #,
	movl	%eax, _DSP	 # _243, DSP
	.loc 1 120 0
	movl	%edi, (%eax)	 # arg2.22_86, *prephitmp_460
	jmp	L27	 #
LVL66:
	.p2align 4,,10
L49:
LBE154:
LBE156:
LBB157:
LBB158:
	.loc 1 126 0
	movl	_DSP, %eax	 # DSP, DSP.5_238
LVL67:
	.loc 1 127 0
	movl	_DSS, %edx	 # DSS, DSS.6_241
	.loc 1 128 0
	movl	_DSE, %edi	 # DSE, pretmp_461
	.loc 1 126 0
	movl	(%eax), %ecx	 # *DSP.5_238, v
LVL68:
	.loc 1 127 0
	subl	$4, %eax	 #, _240
	cmpl	%edx, %eax	 # DSS.6_241, _240
	movl	%eax, _DSP	 # _240, DSP
LVL69:
	jnb	L84	 #,
	.loc 1 128 0
	movl	%edi, _DSP	 # pretmp_461, DSP
	movl	%edi, %eax	 # pretmp_461, DSP.19_87
L84:
LVL70:
LBE158:
LBE157:
	.loc 1 318 0
	addl	%ecx, (%eax)	 # v, *DSP.19_87
LVL71:
LBB159:
LBB160:
	.loc 1 118 0
	addl	$4, %eax	 #, _235
	cmpl	%edi, %eax	 # pretmp_461, _235
	jbe	L115	 #,
LVL72:
L100:
LBE160:
LBE159:
LBB161:
LBB162:
	.loc 1 119 0
	movl	%edx, _DSP	 # DSS.6_273, DSP
LBE162:
LBE161:
LBB165:
LBB166:
	.loc 1 127 0
	movl	%edx, %eax	 # DSS.6_273, _267
L101:
LBE166:
LBE165:
LBB168:
LBB163:
	.loc 1 120 0
	movl	$99999, (%eax)	 #,* _267
	jmp	L27	 #
LVL73:
	.p2align 4,,10
L48:
LBE163:
LBE168:
LBB169:
LBB170:
	.loc 1 126 0
	movl	_DSP, %eax	 # DSP, DSP.5_230
LVL74:
	movl	(%eax), %edx	 # *DSP.5_230, v
LVL75:
	.loc 1 127 0
	subl	$4, %eax	 #, _232
	cmpl	_DSS, %eax	 # DSS, _232
	movl	%eax, _DSP	 # _232, DSP
LVL76:
	jnb	L82	 #,
	.loc 1 128 0
	movl	_DSE, %eax	 # DSE, DSE
	movl	%eax, _DSP	 # DSE, DSP
L82:
LVL77:
LBE170:
LBE169:
	.loc 1 312 0
	movl	_addr, %eax	 # addr, addr
L112:
	movl	%edx, (%eax)	 # v,* addr
	.loc 1 313 0
	addl	$1, _addr	 #, addr
	.loc 1 314 0
	jmp	L27	 #
LVL78:
	.p2align 4,,10
L47:
	.loc 1 306 0
	movl	_addr, %eax	 # addr, addr.18_97
LVL79:
	leal	1(%eax), %edx	 #, tmp309
	movl	%edx, _addr	 # tmp309, addr
LVL80:
	movl	(%eax), %edx	 # *addr.26_100, _101
LVL81:
LBB171:
LBB172:
	.loc 1 118 0
	movl	_DSP, %eax	 # DSP, tmp356
	addl	$4, %eax	 #, _226
	cmpl	_DSE, %eax	 # DSE, _226
	movl	%eax, _DSP	 # _226, DSP
	jbe	L112	 #,
	.loc 1 119 0
	movl	_DSS, %eax	 # DSS, _226
	movl	%eax, _DSP	 # _226, DSP
	jmp	L112	 #
LVL82:
	.p2align 4,,10
L58:
LBE172:
LBE171:
LBB173:
LBB174:
	.loc 1 118 0
	movl	_DSP, %eax	 # DSP, tmp360
LVL83:
LBE174:
LBE173:
	.loc 1 376 0
	movl	(%edx), %edx	 # *PC.23_54, arg1
LVL84:
LBB176:
LBB175:
	.loc 1 118 0
	addl	$4, %eax	 #, _263
	cmpl	_DSE, %eax	 # DSE, _263
	movl	%eax, _DSP	 # _263, DSP
LVL85:
	jbe	L97	 #,
	.loc 1 119 0
	movl	_DSS, %eax	 # DSS, _263
	movl	%eax, _DSP	 # _263, DSP
L97:
	.loc 1 120 0
	movl	%edx, (%eax)	 # arg1, *prephitmp_429
LVL86:
LBE175:
LBE176:
	.loc 1 378 0
	addl	$4, %esi	 #, PC
	.loc 1 379 0
	jmp	L27	 #
LVL87:
	.p2align 4,,10
L57:
LBB177:
	.loc 1 369 0 discriminator 7
	movl	_hStdout, %eax	 # hStdout, hStdout
LVL88:
	movl	$_csbi, 4(%esp)	 #,
LVL89:
	movl	%eax, (%esp)	 # hStdout,
	call	_GetConsoleScreenBufferInfo@8	 #
	.cfi_def_cfa_offset 56
LVL90:
	subl	$8, %esp	 #,
	.cfi_def_cfa_offset 64
LVL91:
	.loc 1 370 0 discriminator 7
	movswl	_csbi+2, %edx	 # csbi.dwSize.Y, csbi.dwSize.Y
	.loc 1 371 0 discriminator 7
	leal	44(%esp), %eax	 #, tmp359
	movl	$0, 12(%esp)	 #,
	movl	$32, 4(%esp)	 #,
	movl	%eax, 16(%esp)	 # tmp359,
	.loc 1 370 0 discriminator 7
	movswl	_csbi, %eax	 # csbi.dwSize.X, csbi.dwSize.X
	imull	%edx, %eax	 # csbi.dwSize.Y, arg1
LVL92:
	.loc 1 371 0 discriminator 7
	movl	%eax, 8(%esp)	 # arg1,
	movl	_hStdout, %eax	 # hStdout, hStdout
LVL93:
	movl	%eax, (%esp)	 # hStdout,
	call	_FillConsoleOutputCharacterA@20	 #
	.cfi_def_cfa_offset 44
LVL94:
	subl	$20, %esp	 #,
	.cfi_def_cfa_offset 64
LBE177:
	.loc 1 373 0 discriminator 7
	jmp	L27	 #
LVL95:
	.p2align 4,,10
L56:
LBB178:
LBB179:
LBB180:
	.loc 1 126 0
	movl	_DSP, %eax	 # DSP, DSP.5_257
LVL96:
	.loc 1 127 0
	movl	_DSS, %ecx	 # DSS, DSS.6_260
LVL97:
	.loc 1 126 0
	movl	(%eax), %edx	 # *DSP.5_257, v
LVL98:
	.loc 1 127 0
	subl	$4, %eax	 #, _259
	cmpl	%ecx, %eax	 # DSS.6_260, _259
	movl	%eax, _DSP	 # _259, DSP
LVL99:
	jnb	L95	 #,
	.loc 1 128 0
	movl	_DSE, %eax	 # DSE, _259
L95:
LVL100:
LBE180:
LBE179:
LBB181:
LBB182:
	.loc 1 126 0
	movl	(%eax), %edi	 # *prephitmp_427, v
LVL101:
	.loc 1 127 0
	subl	$4, %eax	 #, _255
	cmpl	%ecx, %eax	 # DSS.6_260, _255
	movl	%eax, _DSP	 # _255, DSP
	jnb	L96	 #,
	.loc 1 128 0
	movl	_DSE, %eax	 # DSE, DSE
	movl	%eax, _DSP	 # DSE, DSP
L96:
LVL102:
LBE182:
LBE181:
	.loc 1 360 0
	movl	%edi, %eax	 # v, v
	movzwl	%bx, %ebx	 # pos, pos
LVL103:
	.loc 1 359 0
	movl	%edi, 44(%esp)	 # v, arg2
	.loc 1 360 0
	sall	$16, %eax	 #, v
LVL104:
	orl	%eax, %ebx	 # tmp317, pos
LVL105:
	.loc 1 362 0
	movl	_hStdout, %eax	 # hStdout, hStdout
	.loc 1 361 0
	movw	%dx, %bx	 # v, pos
LVL106:
	.loc 1 362 0
	movl	%ebx, 4(%esp)	 # pos,
	movl	%eax, (%esp)	 # hStdout,
	call	_SetConsoleCursorPosition@8	 #
	.cfi_def_cfa_offset 56
LVL107:
	subl	$8, %esp	 #,
	.cfi_def_cfa_offset 64
LBE178:
	.loc 1 364 0
	jmp	L27	 #
LVL108:
	.p2align 4,,10
L60:
LBB183:
LBB184:
	.loc 1 126 0
	movl	_DSP, %eax	 # DSP, DSP.5_280
LVL109:
	movl	(%eax), %edx	 # *DSP.5_280, v
LVL110:
	.loc 1 127 0
	subl	$4, %eax	 #, _282
	cmpl	_DSS, %eax	 # DSS, _282
	movl	%eax, _DSP	 # _282, DSP
LVL111:
	jnb	L102	 #,
	.loc 1 128 0
	movl	_DSE, %eax	 # DSE, DSE
	movl	%eax, _DSP	 # DSE, DSP
L102:
LVL112:
LBE184:
LBE183:
LBB185:
LBB186:
	.loc 1 147 0
	movl	_RSP, %eax	 # RSP, tmp361
	addl	$4, %eax	 #, _276
	cmpl	_RSE, %eax	 # RSE, _276
	movl	%eax, _RSP	 # _276, RSP
	jbe	L110	 #,
	.loc 1 148 0
	movl	_RSS, %eax	 # RSS, _276
	movl	%eax, _RSP	 # _276, RSP
L110:
LVL113:
LBE186:
LBE185:
	.loc 1 232 0
	movl	%edx, (%eax)	 # arg1,* DSP.19_152
	.loc 1 233 0
	jmp	L27	 #
LVL114:
	.p2align 4,,10
L59:
LBB187:
LBB167:
	.loc 1 126 0
	movl	_DSP, %eax	 # DSP, DSP.5_270
LVL115:
	.loc 1 127 0
	movl	_DSS, %edx	 # DSS, DSS.6_273
	movl	_DSE, %ecx	 # DSE, pretmp_424
LVL116:
	.loc 1 126 0
	movl	(%eax), %edi	 # *DSP.5_270, v
LVL117:
	.loc 1 127 0
	subl	$4, %eax	 #, DSE.7_274
	cmpl	%edx, %eax	 # DSS.6_273, DSE.7_274
	movl	%eax, _DSP	 # DSE.7_274, DSP
LVL118:
	jnb	L99	 #,
	.loc 1 128 0
	movl	_DSE, %eax	 # DSE, DSE.7_274
	movl	%eax, _DSP	 # DSE.7_274, DSP
	movl	%eax, %ecx	 # DSE.7_274, pretmp_424
L99:
LVL119:
LBE167:
LBE187:
	.loc 1 383 0
	addl	%edi, (%eax)	 # v, *prephitmp_430
LVL120:
LBB188:
LBB164:
	.loc 1 118 0
	addl	$4, %eax	 #, _267
	cmpl	%ecx, %eax	 # pretmp_424, _267
	ja	L100	 #,
LVL121:
L115:
	movl	%eax, _DSP	 # _267, DSP
	jmp	L101	 #
LVL122:
	.p2align 4,,10
L61:
LBE164:
LBE188:
LBB189:
LBB190:
	.loc 1 155 0
	movl	_RSP, %eax	 # RSP, RSP.12_290
LVL123:
	movl	(%eax), %edx	 # *RSP.12_290, v
LVL124:
	.loc 1 156 0
	subl	$4, %eax	 #, _292
	cmpl	_RSS, %eax	 # RSS, _292
	movl	%eax, _RSP	 # _292, RSP
LVL125:
	jnb	L104	 #,
	.loc 1 157 0
	movl	_RSE, %eax	 # RSE, RSE
	movl	%eax, _RSP	 # RSE, RSP
LVL126:
L104:
LBE190:
LBE189:
LBB191:
LBB192:
	.loc 1 118 0
	movl	_DSP, %eax	 # DSP, tmp362
	addl	$4, %eax	 #, _286
	cmpl	_DSE, %eax	 # DSE, _286
	movl	%eax, _DSP	 # _286, DSP
	jbe	L110	 #,
L116:
	.loc 1 119 0
	movl	_DSS, %eax	 # DSS, _286
	movl	%eax, _DSP	 # _286, DSP
LVL127:
LBE192:
LBE191:
	.loc 1 232 0
	movl	%edx, (%eax)	 # arg1,* DSP.19_152
	jmp	L27	 #
LVL128:
	.p2align 4,,10
L37:
LBB193:
LBB194:
	.loc 1 126 0
	movl	_DSP, %eax	 # DSP, DSP.5_190
LVL129:
	movl	(%eax), %edx	 # *DSP.5_190, v
LVL130:
	.loc 1 127 0
	subl	$4, %eax	 #, _192
	cmpl	_DSS, %eax	 # DSS, _192
	movl	%eax, _DSP	 # _192, DSP
LVL131:
	jnb	L74	 #,
	.loc 1 128 0
	movl	_DSE, %eax	 # DSE, DSE
	movl	%eax, _DSP	 # DSE, DSP
L74:
LVL132:
LBE194:
LBE193:
	.loc 1 256 0
	movzbl	%dl, %eax	 # v, v
	movl	$LC2, (%esp)	 #,
	movl	%eax, 4(%esp)	 # v,
	call	_printf	 #
LVL133:
	.loc 1 257 0
	jmp	L27	 #
LVL134:
	.p2align 4,,10
L36:
LBB195:
LBB196:
	.loc 1 126 0
	movl	_DSP, %eax	 # DSP, DSP.5_185
LVL135:
	movl	(%eax), %edx	 # *DSP.5_185, v
LVL136:
	.loc 1 127 0
	subl	$4, %eax	 #, _187
	cmpl	_DSS, %eax	 # DSS, _187
	movl	%eax, _DSP	 # _187, DSP
LVL137:
	jnb	L73	 #,
	.loc 1 128 0
	movl	_DSE, %eax	 # DSE, DSE
	movl	%eax, _DSP	 # DSE, DSP
L73:
LVL138:
LBE196:
LBE195:
	.loc 1 251 0
	movl	%edx, _addr	 # v, addr
	.loc 1 252 0
	jmp	L27	 #
LVL139:
	.p2align 4,,10
L35:
	.loc 1 246 0
	movl	_DSP, %eax	 # DSP, DSP.19_147
LVL140:
	movl	(%eax), %edx	 # *DSP.19_147, arg1
LVL141:
LBB197:
LBB198:
	.loc 1 118 0
	addl	$4, %eax	 #, _181
	cmpl	_DSE, %eax	 # DSE, _181
	movl	%eax, _DSP	 # _181, DSP
LVL142:
	ja	L116	 #,
LBE198:
LBE197:
	.loc 1 232 0
	movl	%edx, (%eax)	 # arg1,* DSP.19_152
	jmp	L27	 #
LVL143:
	.p2align 4,,10
L34:
LBB199:
LBB200:
	.loc 1 127 0
	movl	_DSP, %eax	 # DSP, tmp353
LVL144:
	subl	$4, %eax	 #, _178
	cmpl	_DSS, %eax	 # DSS, _178
	movl	%eax, _DSP	 # _178, DSP
LVL145:
	jnb	L27	 #,
	.loc 1 128 0
	movl	_DSE, %eax	 # DSE, DSE
LVL146:
	movl	%eax, _DSP	 # DSE, DSP
LVL147:
	jmp	L27	 #
LVL148:
	.p2align 4,,10
L33:
LBE200:
LBE199:
LBB201:
LBB202:
	.loc 1 126 0
	movl	_DSP, %eax	 # DSP, DSP.5_172
LVL149:
	.loc 1 127 0
	movl	_DSS, %edi	 # DSS, DSS.6_175
	.loc 1 126 0
	movl	(%eax), %ecx	 # *DSP.5_172, v
LVL150:
	.loc 1 127 0
	subl	$4, %eax	 #, _174
	cmpl	%edi, %eax	 # DSS.6_175, _174
	movl	%eax, _DSP	 # _174, DSP
LVL151:
	jnb	L69	 #,
	.loc 1 128 0
	movl	_DSE, %eax	 # DSE, _174
L69:
LVL152:
LBE202:
LBE201:
LBB203:
LBB204:
	.loc 1 126 0
	movl	(%eax), %edx	 # *prephitmp_471, v
LVL153:
	.loc 1 127 0
	subl	$4, %eax	 #, _170
	cmpl	%edi, %eax	 # DSS.6_175, _170
	movl	%eax, _DSP	 # _170, DSP
	jnb	L70	 #,
	.loc 1 128 0
	movl	_DSE, %eax	 # DSE, DSE
	movl	%eax, _DSP	 # DSE, DSP
L70:
LVL154:
LBE204:
LBE203:
	.loc 1 237 0
	movl	%edx, 44(%esp)	 # v, arg2
	.loc 1 238 0
	movl	%edx, (%ecx)	 # v, *arg1.21_150
	.loc 1 239 0
	jmp	L27	 #
LVL155:
	.p2align 4,,10
L32:
	.loc 1 231 0
	movl	_DSP, %eax	 # DSP, DSP.19_152
LVL156:
	movl	(%eax), %edx	 # *DSP.19_152, *DSP.19_152
	movl	(%edx), %edx	 # *_154, arg1
LVL157:
	.loc 1 232 0
	movl	%edx, (%eax)	 # arg1,* DSP.19_152
LVL158:
	jmp	L27	 #
LVL159:
	.p2align 4,,10
L31:
	.loc 1 227 0
	movl	_addr, %edx	 # addr, addr.18_13
LVL160:
	jmp	L104	 #
LVL161:
	.p2align 4,,10
L42:
LBB205:
LBB206:
	.loc 1 155 0
	movl	_RSP, %eax	 # RSP, RSP.12_200
LVL162:
	movl	(%eax), %edx	 # *RSP.12_200, v
LVL163:
	.loc 1 156 0
	subl	$4, %eax	 #, _202
	cmpl	_RSS, %eax	 # RSS, _202
	movl	%eax, _RSP	 # _202, RSP
LVL164:
	jnb	L76	 #,
	.loc 1 157 0
	movl	_RSE, %eax	 # RSE, RSE
	movl	%eax, _RSP	 # RSE, RSP
L76:
LVL165:
LBE206:
LBE205:
	.loc 1 281 0
	movl	_call_depth, %eax	 # call_depth, tmp355
	.loc 1 280 0
	movl	%edx, %esi	 # v, PC
	.loc 1 281 0
	subl	$1, %eax	 #, _159
	testl	%eax, %eax	 # _159
	movl	%eax, _call_depth	 # _159, call_depth
	jg	L27	 #,
	jmp	L26	 #
LVL166:
	.p2align 4,,10
L41:
LBB207:
LBB208:
	.loc 1 147 0
	movl	_RSP, %eax	 # RSP, tmp354
LVL167:
LBE208:
LBE207:
	.loc 1 273 0
	addl	$5, %ecx	 #, _125
LVL168:
	.loc 1 272 0
	movl	(%edx), %edx	 # *PC.23_122, arg1
LVL169:
	.loc 1 273 0
	movl	%ecx, %esi	 # _125, PC
LVL170:
LBB210:
LBB209:
	.loc 1 147 0
	addl	$4, %eax	 #, _196
	cmpl	_RSE, %eax	 # RSE, _196
	movl	%eax, _RSP	 # _196, RSP
LVL171:
	jbe	L75	 #,
	.loc 1 148 0
	movl	_RSS, %eax	 # RSS, _196
	movl	%eax, _RSP	 # _196, RSP
L75:
	.loc 1 149 0
	movl	%ecx, (%eax)	 # _125, *prephitmp_469
LVL172:
LBE209:
LBE210:
	.loc 1 275 0
	movl	%edx, %esi	 # arg1, PC
	.loc 1 276 0
	addl	$1, _call_depth	 #, call_depth
	.loc 1 277 0
	jmp	L27	 #
LVL173:
	.p2align 4,,10
L39:
	.loc 1 264 0
	movl	_DSP, %eax	 # DSP, DSP.19_136
LVL174:
	subl	$1, (%eax)	 #, *DSP.19_136
LVL175:
	.loc 1 265 0
	jmp	L27	 #
LVL176:
	.p2align 4,,10
L38:
	.loc 1 260 0
	movl	_DSP, %eax	 # DSP, DSP.19_140
LVL177:
	addl	$1, (%eax)	 #, *DSP.19_140
LVL178:
	.loc 1 261 0
	jmp	L27	 #
LVL179:
	.p2align 4,,10
L44:
LBB211:
LBB212:
	.loc 1 126 0
	movl	_DSP, %eax	 # DSP, DSP.5_210
LVL180:
	movl	(%eax), %edx	 # *DSP.5_210, v
LVL181:
	.loc 1 127 0
	subl	$4, %eax	 #, _212
	cmpl	_DSS, %eax	 # DSS, _212
	movl	%eax, _DSP	 # _212, DSP
LVL182:
	jnb	L78	 #,
	.loc 1 128 0
	movl	_DSE, %eax	 # DSE, _212
	movl	%eax, _DSP	 # _212, DSP
L78:
LVL183:
LBE212:
LBE211:
	.loc 1 292 0
	subl	%edx, (%eax)	 # v, *prephitmp_467
	.loc 1 293 0
	jmp	L27	 #
LVL184:
	.p2align 4,,10
L43:
LBB213:
LBB214:
	.loc 1 126 0
	movl	_DSP, %eax	 # DSP, DSP.5_205
LVL185:
	movl	(%eax), %edx	 # *DSP.5_205, v
LVL186:
	.loc 1 127 0
	subl	$4, %eax	 #, _207
	cmpl	_DSS, %eax	 # DSS, _207
	movl	%eax, _DSP	 # _207, DSP
LVL187:
	jnb	L77	 #,
	.loc 1 128 0
	movl	_DSE, %eax	 # DSE, _207
	movl	%eax, _DSP	 # _207, DSP
L77:
LVL188:
LBE214:
LBE213:
	.loc 1 287 0
	addl	%edx, (%eax)	 # v, *prephitmp_468
	.loc 1 288 0
	jmp	L27	 #
LVL189:
	.p2align 4,,10
L45:
LBB215:
LBB216:
	.loc 1 126 0
	movl	_DSP, %eax	 # DSP, DSP.5_215
LVL190:
	movl	(%eax), %edx	 # *DSP.5_215, v
LVL191:
	.loc 1 127 0
	subl	$4, %eax	 #, _217
	cmpl	_DSS, %eax	 # DSS, _217
	movl	%eax, _DSP	 # _217, DSP
LVL192:
	jnb	L79	 #,
	.loc 1 128 0
	movl	_DSE, %eax	 # DSE, _217
	movl	%eax, _DSP	 # _217, DSP
L79:
LVL193:
LBE216:
LBE215:
	.loc 1 297 0
	imull	(%eax), %edx	 # *prephitmp_466, tmp304
	movl	%edx, (%eax)	 # tmp304,* _217
	.loc 1 298 0
	jmp	L27	 #
LVL194:
	.p2align 4,,10
L91:
LBB217:
LBB144:
	.loc 1 127 0
	movl	%edx, %eax	 # DSS.6_251, _243
LBE144:
LBE217:
LBB218:
LBB155:
	.loc 1 119 0
	movl	%edx, _DSP	 # DSS.6_251, DSP
	.loc 1 120 0
	movl	%edi, (%eax)	 # arg2.22_86, *prephitmp_460
	jmp	L27	 #
LBE155:
LBE218:
	.cfi_endproc
LFE77:
	.p2align 4,,15
	.globl	_define_word
	.def	_define_word;	.scl	2;	.type	32;	.endef
_define_word:
LFB78:
	.loc 1 427 0
	.cfi_startproc
LVL195:
	pushl	%edi	 #
	.cfi_def_cfa_offset 8
	.cfi_offset 7, -8
	pushl	%ebx	 #
	.cfi_def_cfa_offset 12
	.cfi_offset 3, -12
	subl	$20, %esp	 #,
	.cfi_def_cfa_offset 32
	.loc 1 429 0
	movl	_num_words, %eax	 # num_words, tmp112
	.loc 1 427 0
	movl	32(%esp), %ebx	 # word, word
	.loc 1 429 0
	addl	$1, %eax	 #, _5
	leal	(%eax,%eax,8), %edx	 #, tmp103
	movl	%eax, _num_words	 # _5, num_words
	movl	_the_dict, %eax	 # the_dict, the_dict.31_3
	.loc 1 431 0
	movl	%ebx, (%esp)	 # word,
	.loc 1 429 0
	leal	(%eax,%edx,4), %edi	 #, ep
LVL196:
	.loc 1 431 0
	call	_strlen	 #
LVL197:
	cmpl	$29, %eax	 #, tmp106
	jbe	L120	 #,
	.loc 1 432 0
	movb	$0, 29(%ebx)	 #, MEM[(char *)word_10(D) + 29B]
L120:
LVL198:
	.loc 1 434 0
	movl	_HERE, %eax	 # HERE, HERE
	.loc 1 435 0
	movb	$0, 4(%edi)	 #, ep_9->flags
LBB221:
LBB222:
	.loc 1 100 0
	leal	5(%edi), %ecx	 #, dst
LVL199:
LBE222:
LBE221:
	.loc 1 434 0
	movl	%eax, (%edi)	 # HERE, ep_9->xt
LBB224:
LBB223:
	.loc 1 100 0
	movzbl	(%ebx), %edx	 # MEM[(const char *)word_10(D)], _24
	movl	%ebx, %eax	 # word, src
	testb	%dl, %dl	 # _24
	je	L119	 #,
LVL200:
	.p2align 4,,10
L124:
	.loc 1 102 0
	addl	$1, %ecx	 #, dst
LVL201:
	addl	$1, %eax	 #, src
LVL202:
	movb	%dl, -1(%ecx)	 # _24, MEM[base: dst_18, offset: 4294967295B]
	.loc 1 100 0
	movzbl	(%eax), %edx	 # MEM[base: src_20, offset: 0B], _24
	testb	%dl, %dl	 # _24
	jne	L124	 #,
L119:
LBE223:
LBE224:
	.loc 1 437 0
	addl	$20, %esp	 #,
	.cfi_def_cfa_offset 12
	popl	%ebx	 #
	.cfi_restore 3
	.cfi_def_cfa_offset 8
	popl	%edi	 #
	.cfi_restore 7
	.cfi_def_cfa_offset 4
LVL203:
	ret
	.cfi_endproc
LFE78:
	.p2align 4,,15
	.globl	_find_word
	.def	_find_word;	.scl	2;	.type	32;	.endef
_find_word:
LFB79:
	.loc 1 440 0
	.cfi_startproc
LVL204:
	pushl	%ebp	 #
	.cfi_def_cfa_offset 8
	.cfi_offset 5, -8
	pushl	%edi	 #
	.cfi_def_cfa_offset 12
	.cfi_offset 7, -12
	pushl	%ebx	 #
	.cfi_def_cfa_offset 16
	.cfi_offset 3, -16
	subl	$16, %esp	 #,
	.cfi_def_cfa_offset 32
LBB227:
	.loc 1 441 0
	movl	_num_words, %ebx	 # num_words, i
LVL205:
	leal	(%ebx,%ebx,8), %edi	 #, tmp97
	sall	$2, %edi	 #, ivtmp.157
	testl	%ebx, %ebx	 # i
	jg	L130	 #,
	jmp	L131	 #
LVL206:
	.p2align 4,,10
L137:
	subl	$36, %edi	 #, ivtmp.157
	.loc 1 441 0 is_stmt 0 discriminator 2
	subl	$1, %ebx	 #, i
LVL207:
	je	L131	 #,
LVL208:
L130:
LBB228:
	.loc 1 443 0 is_stmt 1
	movl	_the_dict, %ebp	 # the_dict, <retval>
	addl	%edi, %ebp	 # ivtmp.157, <retval>
LVL209:
	.loc 1 444 0
	leal	5(%ebp), %eax	 #, tmp100
	movl	%eax, 4(%esp)	 # tmp100,
	movl	32(%esp), %eax	 # word, tmp103
	movl	%eax, (%esp)	 # tmp103,
	call	__stricmp	 #
LVL210:
	testl	%eax, %eax	 # _14
	jne	L137	 #,
LBE228:
LBE227:
	.loc 1 450 0
	addl	$16, %esp	 #,
	.cfi_remember_state
	.cfi_def_cfa_offset 16
	movl	%ebp, %eax	 # <retval>,
	popl	%ebx	 #
	.cfi_restore 3
	.cfi_def_cfa_offset 12
LVL211:
	popl	%edi	 #
	.cfi_restore 7
	.cfi_def_cfa_offset 8
	popl	%ebp	 #
	.cfi_restore 5
	.cfi_def_cfa_offset 4
LVL212:
	ret
LVL213:
	.p2align 4,,10
L131:
	.cfi_restore_state
	addl	$16, %esp	 #,
	.cfi_def_cfa_offset 16
	.loc 1 449 0
	xorl	%ebp, %ebp	 # <retval>
	.loc 1 450 0
	movl	%ebp, %eax	 # <retval>,
	popl	%ebx	 #
	.cfi_restore 3
	.cfi_def_cfa_offset 12
LVL214:
	popl	%edi	 #
	.cfi_restore 7
	.cfi_def_cfa_offset 8
	popl	%ebp	 #
	.cfi_restore 5
	.cfi_def_cfa_offset 4
	ret
	.cfi_endproc
LFE79:
	.section .rdata,"dr"
LC7:
	.ascii "\12%4d, %08lx, %08lx, %02x, %s\0"
	.text
	.p2align 4,,15
	.globl	_dump_words
	.def	_dump_words;	.scl	2;	.type	32;	.endef
_dump_words:
LFB80:
	.loc 1 453 0
	.cfi_startproc
	pushl	%edi	 #
	.cfi_def_cfa_offset 8
	.cfi_offset 7, -8
	pushl	%ebx	 #
	.cfi_def_cfa_offset 12
	.cfi_offset 3, -12
	subl	$36, %esp	 #,
	.cfi_def_cfa_offset 48
LBB229:
	.loc 1 454 0
	movl	_num_words, %ebx	 # num_words, i
LVL215:
	leal	(%ebx,%ebx,8), %edi	 #, tmp99
	sall	$2, %edi	 #, ivtmp.164
	testl	%ebx, %ebx	 # i
	jle	L138	 #,
	.p2align 4,,10
L140:
LBB230:
	.loc 1 456 0 discriminator 3
	movl	_the_dict, %eax	 # the_dict, ep
	addl	%edi, %eax	 # ivtmp.164, ep
LVL216:
	subl	$36, %edi	 #, ivtmp.164
	.loc 1 457 0 discriminator 3
	leal	5(%eax), %edx	 #, tmp102
	movl	%edx, 20(%esp)	 # tmp102,
	movzbl	4(%eax), %edx	 # ep_8->flags, ep_8->flags
	movl	%edx, 16(%esp)	 # ep_8->flags,
	movl	(%eax), %edx	 # ep_8->xt, ep_8->xt
	movl	%ebx, 4(%esp)	 # i,
	movl	%eax, 8(%esp)	 # ep,
	movl	$LC7, (%esp)	 #,
	movl	%edx, 12(%esp)	 # ep_8->xt,
	call	_printf	 #
LVL217:
LBE230:
	.loc 1 454 0 discriminator 3
	subl	$1, %ebx	 #, i
LVL218:
	jne	L140	 #,
L138:
LBE229:
	.loc 1 459 0
	addl	$36, %esp	 #,
	.cfi_def_cfa_offset 12
	popl	%ebx	 #
	.cfi_restore 3
	.cfi_def_cfa_offset 8
LVL219:
	popl	%edi	 #
	.cfi_restore 7
	.cfi_def_cfa_offset 4
	ret
	.cfi_endproc
LFE80:
	.p2align 4,,15
	.globl	_getword
	.def	_getword;	.scl	2;	.type	32;	.endef
_getword:
LFB81:
	.loc 1 468 0
	.cfi_startproc
LVL220:
	.loc 1 468 0
	movl	4(%esp), %eax	 # line, line
	movl	8(%esp), %ecx	 # word, word
LVL221:
	.loc 1 472 0
	movzbl	(%eax), %edx	 #* line, prephitmp_2
	testb	%dl, %dl	 # prephitmp_2
	jne	L162	 #,
	jmp	L163	 #
LVL222:
	.p2align 4,,10
L165:
	.loc 1 474 0
	addl	$1, %eax	 #, <retval>
LVL223:
	.loc 1 472 0
	movzbl	(%eax), %edx	 #* <retval>, prephitmp_2
	testb	%dl, %dl	 # prephitmp_2
	je	L163	 #,
L162:
	cmpb	$32, %dl	 #, prephitmp_2
	jle	L165	 #,
	.loc 1 478 0
	cmpb	$32, %dl	 #, prephitmp_2
	jle	L166	 #,
LVL224:
	.p2align 4,,10
L149:
	.loc 1 480 0
	addl	$1, %ecx	 #, word
LVL225:
	addl	$1, %eax	 #, <retval>
LVL226:
	movb	%dl, -1(%ecx)	 # prephitmp_2, MEM[base: cp_15, offset: 4294967295B]
	.loc 1 478 0
	movzbl	(%eax), %edx	 # MEM[base: line_16, offset: 0B], prephitmp_2
L163:
	cmpb	$32, %dl	 #, prephitmp_2
	jg	L149	 #,
L166:
	.loc 1 482 0
	movb	$0, (%ecx)	 #, *cp_34
	.loc 1 485 0
	ret
	.cfi_endproc
LFE81:
	.section .rdata,"dr"
LC8:
	.ascii "0123456789abcdef\0"
	.text
	.p2align 4,,15
	.globl	_is_number
	.def	_is_number;	.scl	2;	.type	32;	.endef
_is_number:
LFB82:
	.loc 1 488 0
	.cfi_startproc
LVL227:
	pushl	%ebp	 #
	.cfi_def_cfa_offset 8
	.cfi_offset 5, -8
	pushl	%edi	 #
	.cfi_def_cfa_offset 12
	.cfi_offset 7, -12
	pushl	%ebx	 #
	.cfi_def_cfa_offset 16
	.cfi_offset 3, -16
	subl	$64, %esp	 #,
	.cfi_def_cfa_offset 80
	.loc 1 488 0
	movl	80(%esp), %ebp	 # word, word
LVL228:
	.loc 1 495 0
	movsbl	0(%ebp), %eax	 # *word_13(D),
	cmpb	$39, %al	 #, _33
	je	L189	 #,
	.loc 1 501 0
	cmpb	$37, %al	 #, _33
	je	L190	 #,
	.loc 1 507 0
	cmpb	$35, %al	 #, _33
	je	L191	 #,
L172:
	.loc 1 513 0
	cmpb	$36, %al	 #, _33
	je	L192	 #,
LVL229:
L169:
	leal	40(%esp), %edi	 #, tmp125
LVL230:
	movl	$48, %edx	 #, _56
	movl	$LC8, %ebx	 #, src
	movl	%edi, %ecx	 # tmp125, dst
LVL231:
	.p2align 4,,10
L173:
LBB231:
LBB232:
	.loc 1 102 0
	addl	$1, %ecx	 #, dst
LVL232:
	addl	$1, %ebx	 #, src
LVL233:
	movb	%dl, -1(%ecx)	 # _56, MEM[base: dst_53, offset: 4294967295B]
	.loc 1 100 0
	movzbl	(%ebx), %edx	 # MEM[base: src_55, offset: 0B], _56
	testb	%dl, %dl	 # _56
	jne	L173	 #,
LVL234:
LBE232:
LBE231:
	.loc 1 520 0
	movl	88(%esp), %ecx	 # base, tmp141
	.loc 1 523 0
	cmpl	$10, %ecx	 #,
	.loc 1 520 0
	movb	$0, 40(%esp,%ecx)	 #, valid_chars
	.loc 1 523 0
	je	L193	 #,
L174:
	.loc 1 529 0
	testb	%al, %al	 # _33
	movl	$0, 28(%esp)	 #, %sfp
	je	L180	 #,
LVL235:
L178:
	.loc 1 525 0
	xorl	%ebx, %ebx	 # my_num
	jmp	L176	 #
LVL236:
	.p2align 4,,10
L195:
LBB233:
	.loc 1 539 0
	imull	88(%esp), %ebx	 # base, tmp123
LVL237:
	.loc 1 538 0
	subl	%edi, %eax	 # tmp125, digit
LVL238:
	.loc 1 539 0
	addl	%eax, %ebx	 # digit, my_num
LVL239:
LBE233:
	.loc 1 529 0
	movsbl	0(%ebp), %eax	 # MEM[base: w_34, offset: 0B],
	testb	%al, %al	 # _33
	je	L194	 #,
LVL240:
L176:
LBB234:
	.loc 1 532 0
	movl	%eax, (%esp)	 # _33,
	.loc 1 531 0
	addl	$1, %ebp	 #, word
LVL241:
	.loc 1 532 0
	call	_tolower	 #
LVL242:
	.loc 1 533 0
	movsbl	%al, %eax	 # _37, _37
	movl	%edi, (%esp)	 # tmp125,
	movl	%eax, 4(%esp)	 # _37,
	call	_strchr	 #
LVL243:
	.loc 1 534 0
	testl	%eax, %eax	 # pos
	jne	L195	 #,
	.loc 1 536 0
	xorl	%eax, %eax	 # <retval>
LVL244:
L167:
LBE234:
	.loc 1 548 0
	addl	$64, %esp	 #,
	.cfi_remember_state
	.cfi_def_cfa_offset 16
	popl	%ebx	 #
	.cfi_restore 3
	.cfi_def_cfa_offset 12
	popl	%edi	 #
	.cfi_restore 7
	.cfi_def_cfa_offset 8
	popl	%ebp	 #
	.cfi_restore 5
	.cfi_def_cfa_offset 4
LVL245:
	ret
LVL246:
	.p2align 4,,10
L192:
	.cfi_restore_state
	movsbl	1(%ebp), %eax	 # MEM[(char *)w_6 + 1B],
	.loc 1 515 0
	movl	$16, 88(%esp)	 #, base
	.loc 1 516 0
	addl	$1, %ebp	 #, word
LVL247:
	jmp	L169	 #
LVL248:
	.p2align 4,,10
L191:
	movsbl	1(%ebp), %eax	 # MEM[(char *)w_5 + 1B],
	.loc 1 510 0
	addl	$1, %ebp	 #, word
LVL249:
	.loc 1 509 0
	movl	$10, 88(%esp)	 #, base
LVL250:
	.loc 1 513 0
	cmpb	$36, %al	 #, _33
	jne	L169	 #,
	jmp	L192	 #
	.p2align 4,,10
L190:
LVL251:
	movsbl	1(%ebp), %eax	 # MEM[(char *)word_13(D) + 1B],
	.loc 1 504 0
	addl	$1, %ebp	 #, word
LVL252:
	.loc 1 503 0
	movl	$2, 88(%esp)	 #, base
LVL253:
	.loc 1 507 0
	cmpb	$35, %al	 #, _33
	jne	L172	 #,
	jmp	L191	 #
LVL254:
	.p2align 4,,10
L194:
	.loc 1 542 0
	movl	28(%esp), %eax	 # %sfp,
	testl	%eax, %eax	 #
	je	L177	 #,
	negl	%ebx	 # my_num
LVL255:
L177:
	.loc 1 546 0
	movl	84(%esp), %eax	 # the_num, tmp143
	movl	%ebx, (%eax)	 # my_num, *the_num_21(D)
	.loc 1 548 0
	addl	$64, %esp	 #,
	.cfi_remember_state
	.cfi_def_cfa_offset 16
	.loc 1 547 0
	movl	$1, %eax	 #, <retval>
	.loc 1 548 0
	popl	%ebx	 #
	.cfi_restore 3
	.cfi_def_cfa_offset 12
LVL256:
	popl	%edi	 #
	.cfi_restore 7
	.cfi_def_cfa_offset 8
	popl	%ebp	 #
	.cfi_restore 5
	.cfi_def_cfa_offset 4
	ret
LVL257:
	.p2align 4,,10
L189:
	.cfi_restore_state
	.loc 1 495 0 discriminator 1
	cmpb	$39, 2(%ebp)	 #, MEM[(char *)word_13(D) + 2B]
	jne	L169	 #,
	.loc 1 495 0 is_stmt 0 discriminator 2
	cmpb	$0, 3(%ebp)	 #, MEM[(char *)word_13(D) + 3B]
	jne	L169	 #,
	.loc 1 497 0 is_stmt 1
	movsbl	1(%ebp), %eax	 # MEM[(char *)word_13(D) + 1B], MEM[(char *)word_13(D) + 1B]
	movl	84(%esp), %edi	 # the_num, tmp140
	movl	%eax, (%edi)	 # MEM[(char *)word_13(D) + 1B], *the_num_21(D)
	.loc 1 498 0
	movl	$1, %eax	 #, <retval>
	jmp	L167	 #
	.p2align 4,,10
L193:
	.loc 1 523 0 discriminator 1
	cmpb	$45, %al	 #, _33
	jne	L174	 #,
LVL258:
	.loc 1 529 0
	movsbl	1(%ebp), %eax	 # MEM[(char *)w_7 + 1B],
	.loc 1 526 0
	leal	1(%ebp), %ecx	 #, w
LVL259:
	.loc 1 529 0
	testb	%al, %al	 # _33
	je	L180	 #,
	.loc 1 526 0
	movl	%ecx, %ebp	 # w, word
	.loc 1 525 0
	movl	$1, 28(%esp)	 #, %sfp
	jmp	L178	 #
LVL260:
L180:
	.loc 1 529 0
	xorl	%ebx, %ebx	 # my_num
LVL261:
	jmp	L177	 #
	.cfi_endproc
LFE82:
	.section .rdata,"dr"
LC9:
	.ascii ":\0"
LC10:
	.ascii ";\0"
LC11:
	.ascii "if\0"
LC12:
	.ascii "then\0"
LC13:
	.ascii "begin\0"
LC14:
	.ascii "again\0"
LC15:
	.ascii "jmp\0"
LC16:
	.ascii " ??%s??\0"
	.text
	.p2align 4,,15
	.globl	_parseword
	.def	_parseword;	.scl	2;	.type	32;	.endef
_parseword:
LFB83:
	.loc 1 552 0
	.cfi_startproc
LVL262:
	pushl	%ebp	 #
	.cfi_def_cfa_offset 8
	.cfi_offset 5, -8
	pushl	%edi	 #
	.cfi_def_cfa_offset 12
	.cfi_offset 7, -12
	pushl	%ebx	 #
	.cfi_def_cfa_offset 16
	.cfi_offset 3, -16
	subl	$48, %esp	 #,
	.cfi_def_cfa_offset 64
	.loc 1 552 0
	movl	68(%esp), %edi	 # word, word
	movl	64(%esp), %ebx	 # line, line
	.loc 1 553 0
	cmpb	$92, (%edi)	 #, *word_6(D)
	je	L261	 #,
	.loc 1 558 0
	movl	$LC9, 4(%esp)	 #,
	movl	%edi, (%esp)	 # word,
	call	__stricmp	 #
LVL263:
	testl	%eax, %eax	 # _11
	je	L254	 #,
LVL264:
LBB261:
LBB262:
	.loc 1 568 0
	movl	$LC10, 4(%esp)	 #,
	movl	%edi, (%esp)	 # word,
	call	__stricmp	 #
LVL265:
	testl	%eax, %eax	 # _46
	jne	L209	 #,
	.loc 1 570 0
	movl	_HERE, %eax	 # HERE, HERE.45_47
	leal	1(%eax), %edx	 #, tmp237
	movl	%edx, _HERE	 # tmp237, HERE
	movb	$12, (%eax)	 #, *HERE.47_49
LBE262:
LBE261:
	.loc 1 655 0
	movl	%ebx, %eax	 # <retval>,
LBB287:
LBB285:
	.loc 1 571 0
	movl	$0, _STATE	 #, STATE
LBE285:
LBE287:
	.loc 1 655 0
	addl	$48, %esp	 #,
	.cfi_remember_state
	.cfi_def_cfa_offset 16
	popl	%ebx	 #
	.cfi_restore 3
	.cfi_def_cfa_offset 12
LVL266:
	popl	%edi	 #
	.cfi_restore 7
	.cfi_def_cfa_offset 8
LVL267:
	popl	%ebp	 #
	.cfi_restore 5
	.cfi_def_cfa_offset 4
	ret
LVL268:
	.p2align 4,,10
L259:
	.cfi_restore_state
LBB288:
LBB289:
	.loc 1 472 0
	cmpb	$32, %al	 #, _20
	jg	L200	 #,
	.loc 1 474 0
	addl	$1, %ebx	 #, <retval>
LVL269:
L254:
	.loc 1 472 0
	movzbl	(%ebx), %eax	 #* <retval>, _20
	testb	%al, %al	 # _20
	jne	L259	 #,
L200:
LVL270:
	.loc 1 478 0
	cmpb	$32, %al	 #, _20
	movl	%edi, %edx	 # word, cp
	jle	L203	 #,
LVL271:
	.p2align 4,,10
L204:
	.loc 1 480 0
	addl	$1, %edx	 #, cp
LVL272:
	addl	$1, %ebx	 #, <retval>
LVL273:
	movb	%al, -1(%edx)	 # _20, MEM[base: cp_25, offset: 4294967295B]
	.loc 1 478 0
	movzbl	(%ebx), %eax	 # MEM[base: line_27, offset: 0B], _20
	cmpb	$32, %al	 #, _20
	jg	L204	 #,
L203:
	.loc 1 482 0
	movb	$0, (%edx)	 #, *cp_255
LVL274:
LBE289:
LBE288:
	.loc 1 561 0
	cmpb	$0, (%edi)	 #, MEM[(const char *)word_6(D)]
	jne	L262	 #,
LVL275:
L196:
	.loc 1 655 0
	addl	$48, %esp	 #,
	.cfi_remember_state
	.cfi_def_cfa_offset 16
	movl	%ebx, %eax	 # <retval>,
	popl	%ebx	 #
	.cfi_restore 3
	.cfi_def_cfa_offset 12
	popl	%edi	 #
	.cfi_restore 7
	.cfi_def_cfa_offset 8
	popl	%ebp	 #
	.cfi_restore 5
	.cfi_def_cfa_offset 4
	ret
LVL276:
	.p2align 4,,10
L261:
	.cfi_restore_state
	.loc 1 555 0
	movb	$0, (%ebx)	 #, *line_8(D)
	.loc 1 655 0
	addl	$48, %esp	 #,
	.cfi_remember_state
	.cfi_def_cfa_offset 16
	movl	%ebx, %eax	 # <retval>,
	popl	%ebx	 #
	.cfi_restore 3
	.cfi_def_cfa_offset 12
	popl	%edi	 #
	.cfi_restore 7
	.cfi_def_cfa_offset 8
	popl	%ebp	 #
	.cfi_restore 5
	.cfi_def_cfa_offset 4
	ret
LVL277:
	.p2align 4,,10
L262:
	.cfi_restore_state
LBB290:
LBB291:
	.loc 1 429 0
	movl	_num_words, %eax	 # num_words, tmp266
	.loc 1 431 0
	movl	%edi, (%esp)	 # word,
	.loc 1 429 0
	addl	$1, %eax	 #, _34
	leal	(%eax,%eax,8), %edx	 #, tmp231
	movl	%eax, _num_words	 # _34, num_words
	movl	_the_dict, %eax	 # the_dict, the_dict.31_32
	leal	(%eax,%edx,4), %ebp	 #, ep
LVL278:
	.loc 1 431 0
	call	_strlen	 #
LVL279:
	cmpl	$29, %eax	 #, tmp234
	jbe	L205	 #,
	.loc 1 432 0
	movb	$0, 29(%edi)	 #, MEM[(char *)word_6(D) + 29B]
L205:
LVL280:
	.loc 1 434 0
	movl	_HERE, %eax	 # HERE, HERE
	.loc 1 435 0
	movb	$0, 4(%ebp)	 #, ep_37->flags
LBB292:
LBB293:
	.loc 1 100 0
	leal	5(%ebp), %edx	 #, dst
LVL281:
LBE293:
LBE292:
	.loc 1 434 0
	movl	%eax, 0(%ebp)	 # HERE, ep_37->xt
LBB295:
LBB294:
	.loc 1 100 0
	movzbl	(%edi), %eax	 # MEM[(const char *)word_6(D)], _123
	testb	%al, %al	 # _123
	je	L208	 #,
LVL282:
	.p2align 4,,10
L242:
	.loc 1 102 0
	addl	$1, %edx	 #, dst
LVL283:
	addl	$1, %edi	 #, src
LVL284:
	movb	%al, -1(%edx)	 # _123, MEM[base: dst_42, offset: 4294967295B]
	.loc 1 100 0
	movzbl	(%edi), %eax	 # MEM[base: src_44, offset: 0B], _123
	testb	%al, %al	 # _123
	jne	L242	 #,
L208:
LVL285:
LBE294:
LBE295:
LBE291:
LBE290:
	.loc 1 564 0
	movl	$1, _STATE	 #, STATE
	.loc 1 655 0
	addl	$48, %esp	 #,
	.cfi_remember_state
	.cfi_def_cfa_offset 16
	movl	%ebx, %eax	 # <retval>,
	popl	%ebx	 #
	.cfi_restore 3
	.cfi_def_cfa_offset 12
	popl	%edi	 #
	.cfi_restore 7
	.cfi_def_cfa_offset 8
	popl	%ebp	 #
	.cfi_restore 5
	.cfi_def_cfa_offset 4
	ret
LVL286:
	.p2align 4,,10
L209:
	.cfi_restore_state
LBB296:
LBB286:
	.loc 1 574 0
	movl	$LC11, 4(%esp)	 #,
	movl	%edi, (%esp)	 # word,
	call	__stricmp	 #
LVL287:
	testl	%eax, %eax	 # _50
	jne	L211	 #,
	.loc 1 576 0
	movl	_HERE, %eax	 # HERE, HERE.45_51
	leal	1(%eax), %edx	 #, tmp238
	movl	%edx, _HERE	 # tmp238, HERE
	movb	$24, (%eax)	 #, *HERE.49_53
LBB263:
LBB264:
	.loc 1 118 0
	movl	_DSP, %eax	 # DSP, tmp267
LBE264:
LBE263:
	.loc 1 577 0
	movl	_HERE, %edx	 # HERE, HERE.45_54
LVL288:
LBB266:
LBB265:
	.loc 1 118 0
	addl	$4, %eax	 #, _56
	cmpl	_DSE, %eax	 # DSE, _56
	movl	%eax, _DSP	 # _56, DSP
	jbe	L212	 #,
	.loc 1 119 0
	movl	_DSS, %eax	 # DSS, _56
	movl	%eax, _DSP	 # _56, DSP
L212:
	.loc 1 120 0
	movl	%edx, (%eax)	 # HERE.45_54, *prephitmp_167
LVL289:
LBE265:
LBE266:
	.loc 1 578 0
	movl	_HERE, %eax	 # HERE, HERE
	movl	$-1, (%eax)	 #, *HERE.50_61
	addl	$4, _HERE	 #, HERE
	jmp	L196	 #
L211:
	.loc 1 581 0
	movl	$LC12, 4(%esp)	 #,
	movl	%edi, (%esp)	 # word,
	call	__stricmp	 #
LVL290:
	testl	%eax, %eax	 # _64
	jne	L213	 #,
LBB267:
LBB268:
	.loc 1 126 0
	movl	_DSP, %eax	 # DSP, DSP.5_65
	movl	(%eax), %edx	 # *DSP.5_65, v
LVL291:
	.loc 1 127 0
	subl	$4, %eax	 #, _67
	cmpl	_DSS, %eax	 # DSS, _67
	movl	%eax, _DSP	 # _67, DSP
	jnb	L214	 #,
	.loc 1 128 0
	movl	_DSE, %eax	 # DSE, DSE
	movl	%eax, _DSP	 # DSE, DSP
L214:
LVL292:
LBE268:
LBE267:
	.loc 1 584 0
	movl	_HERE, %eax	 # HERE, HERE.45_71
	.loc 1 583 0
	movl	%edx, _tmp	 # v, tmp
	.loc 1 584 0
	movl	%eax, (%edx)	 # HERE.45_71, *tmp.52_70
	jmp	L196	 #
L213:
	.loc 1 587 0
	movl	$LC13, 4(%esp)	 #,
	movl	%edi, (%esp)	 # word,
	call	__stricmp	 #
LVL293:
	testl	%eax, %eax	 # _72
	jne	L215	 #,
LBB269:
LBB270:
	.loc 1 118 0
	movl	_DSP, %eax	 # DSP, tmp268
LBE270:
LBE269:
	.loc 1 589 0
	movl	_HERE, %edx	 # HERE, HERE.45_73
LVL294:
LBB272:
LBB271:
	.loc 1 118 0
	addl	$4, %eax	 #, _75
	cmpl	_DSE, %eax	 # DSE, _75
	movl	%eax, _DSP	 # _75, DSP
	jbe	L216	 #,
	.loc 1 119 0
	movl	_DSS, %eax	 # DSS, _75
	movl	%eax, _DSP	 # _75, DSP
L216:
	.loc 1 120 0
	movl	%edx, (%eax)	 # HERE.45_73, *prephitmp_105
LVL295:
	jmp	L196	 #
L215:
LBE271:
LBE272:
	.loc 1 592 0
	movl	$LC14, 4(%esp)	 #,
	movl	%edi, (%esp)	 # word,
	call	__stricmp	 #
LVL296:
	testl	%eax, %eax	 # _79
	jne	L263	 #,
L219:
	.loc 1 601 0
	movl	_HERE, %eax	 # HERE, HERE.45_93
	leal	1(%eax), %edx	 #, tmp247
	movl	%edx, _HERE	 # tmp247, HERE
	movb	$10, (%eax)	 #,* HERE.45_93
LVL297:
L257:
LBB273:
LBB274:
	.loc 1 126 0
	movl	_DSP, %eax	 # DSP, DSP.5_151
LBE274:
LBE273:
	.loc 1 649 0
	movl	_HERE, %edx	 # HERE, HERE.50_150
LBB276:
LBB275:
	.loc 1 126 0
	movl	(%eax), %ecx	 #* DSP.5_151, v
LVL298:
	.loc 1 127 0
	subl	$4, %eax	 #, _153
	cmpl	_DSS, %eax	 # DSS, _153
	movl	%eax, _DSP	 # _153, DSP
	jnb	L231	 #,
	.loc 1 128 0
	movl	_DSE, %eax	 # DSE, DSE
	movl	%eax, _DSP	 # DSE, DSP
L231:
LVL299:
LBE275:
LBE276:
	.loc 1 649 0
	movl	%ecx, (%edx)	 # v,* HERE.50_150
	addl	$4, _HERE	 #, HERE
	jmp	L196	 #
LVL300:
L263:
	.loc 1 598 0
	movl	$LC15, 4(%esp)	 #,
	movl	%edi, (%esp)	 # word,
	call	__stricmp	 #
LVL301:
	testl	%eax, %eax	 # _92
	je	L219	 #,
LVL302:
LBB277:
LBB278:
	.loc 1 607 0
	movl	_theOpcodes, %eax	 # MEM[(struct  *)&theOpcodes], op$asm_instr
LVL303:
	movzbl	_theOpcodes+4, %edx	 # MEM[(struct  *)&theOpcodes + 4B], op$opcode
LVL304:
	movl	$_theOpcodes, %ebp	 #, ivtmp.207
	.loc 1 608 0
	testl	%eax, %eax	 # op$asm_instr
	jne	L246	 #,
	jmp	L226	 #
LVL305:
	.p2align 4,,10
L224:
	.loc 1 607 0
	movl	8(%ebp), %eax	 # MEM[base: _158, offset: 8B], op$asm_instr
LVL306:
	addl	$8, %ebp	 #, ivtmp.207
	movzbl	4(%ebp), %edx	 # MEM[base: _249, offset: 4B], op$opcode
LVL307:
	.loc 1 608 0
	testl	%eax, %eax	 # op$asm_instr
	je	L226	 #,
L246:
	.loc 1 612 0
	movl	%eax, 4(%esp)	 # op$asm_instr,
	movl	%edi, (%esp)	 # word,
	movb	%dl, 31(%esp)	 # op$opcode, %sfp
LVL308:
	call	__stricmp	 #
LVL309:
	testl	%eax, %eax	 # _109
	movzbl	31(%esp), %edx	 # %sfp,
	jne	L224	 #,
	.loc 1 615 0
	cmpl	$1, _STATE	 #, STATE
	jne	L225	 #,
	.loc 1 616 0
	movl	_HERE, %eax	 # HERE, HERE.45_111
	leal	1(%eax), %ecx	 #, tmp249
	movl	%ecx, _HERE	 # tmp249, HERE
	movb	%dl, (%eax)	 # op$opcode, *HERE.59_113
	jmp	L196	 #
LVL310:
L226:
LBE278:
LBE277:
	.loc 1 627 0
	movl	%edi, (%esp)	 # word,
	call	_find_word	 #
LVL311:
	.loc 1 628 0
	testl	%eax, %eax	 # ep
	je	L264	 #,
	.loc 1 630 0
	cmpl	$1, _STATE	 #, STATE
	jne	L228	 #,
	.loc 1 632 0
	movl	_HERE, %edx	 # HERE, HERE.45_126
	leal	1(%edx), %ecx	 #, tmp252
	movl	%ecx, _HERE	 # tmp252, HERE
	movb	$11, (%edx)	 #, *HERE.63_128
	.loc 1 633 0
	movl	(%eax), %edx	 # ep_124->xt, _131
	movl	_HERE, %eax	 # HERE, HERE
LVL312:
	movl	%edx, (%eax)	 # _131, *HERE.50_130
	addl	$4, _HERE	 #, HERE
	jmp	L196	 #
LVL313:
L228:
	.loc 1 637 0
	movl	(%eax), %eax	 # ep_124->xt, ep_124->xt
LVL314:
	movl	%eax, (%esp)	 # ep_124->xt,
	call	_run_program	 #
LVL315:
	jmp	L196	 #
LVL316:
L264:
	.loc 1 643 0
	movl	_BASE, %eax	 # BASE, BASE
LVL317:
	movl	%edi, (%esp)	 # word,
	.loc 1 642 0
	movl	$0, 44(%esp)	 #, num
	.loc 1 643 0
	movl	%eax, 8(%esp)	 # BASE,
	leal	44(%esp), %eax	 #, tmp256
	movl	%eax, 4(%esp)	 # tmp256,
	call	_is_number	 #
LVL318:
	testl	%eax, %eax	 # _137
	je	L229	 #,
LBB280:
LBB281:
	.loc 1 118 0
	movl	_DSP, %eax	 # DSP, tmp269
LBE281:
LBE280:
	.loc 1 645 0
	movl	44(%esp), %edx	 # num, num.67_139
LVL319:
LBB283:
LBB282:
	.loc 1 118 0
	addl	$4, %eax	 #, _141
	cmpl	_DSE, %eax	 # DSE, _141
	movl	%eax, _DSP	 # _141, DSP
	jbe	L230	 #,
	.loc 1 119 0
	movl	_DSS, %eax	 # DSS, DSS
	movl	%eax, _DSP	 # DSS, DSP
L230:
	.loc 1 120 0
	movl	_DSP, %eax	 # DSP, DSP
	movl	%edx, (%eax)	 # num.67_139, *DSP.2_144
LVL320:
LBE282:
LBE283:
	.loc 1 646 0
	cmpl	$1, _STATE	 #, STATE
	jne	L196	 #,
	.loc 1 648 0
	movl	_HERE, %eax	 # HERE, HERE.45_146
	leal	1(%eax), %edx	 #, tmp260
	movl	%edx, _HERE	 # tmp260, HERE
	movb	$28, (%eax)	 #, *HERE.69_148
	jmp	L257	 #
L229:
	.loc 1 653 0
	movl	%edi, 4(%esp)	 # word,
	movl	$LC16, (%esp)	 #,
	call	_printf	 #
LVL321:
	jmp	L196	 #
LVL322:
L225:
LBB284:
LBB279:
	.loc 1 619 0
	movl	_HERE, %ecx	 # HERE, HERE
	leal	10(%ecx), %eax	 #, _115
	.loc 1 620 0
	movl	%edx, 10(%ecx)	 # op$opcode, *PC.61_117
	.loc 1 621 0
	movl	$12, 11(%ecx)	 #, *_121
	.loc 1 619 0
	movl	%eax, %esi	 # _115, PC
	.loc 1 622 0
	movl	%eax, (%esp)	 # _115,
	call	_run_program	 #
LVL323:
	jmp	L196	 #
LBE279:
LBE284:
LBE286:
LBE296:
	.cfi_endproc
LFE83:
	.p2align 4,,15
	.globl	_parse
	.def	_parse;	.scl	2;	.type	32;	.endef
_parse:
LFB84:
	.loc 1 658 0
	.cfi_startproc
LVL324:
	pushl	%ebx	 #
	.cfi_def_cfa_offset 8
	.cfi_offset 3, -8
	subl	$88, %esp	 #,
	.cfi_def_cfa_offset 96
LVL325:
	.loc 1 658 0
	movl	96(%esp), %eax	 # line, line
LVL326:
LBB301:
LBB302:
	.loc 1 472 0
	movzbl	(%eax), %edx	 #* line, _12
	testb	%dl, %dl	 # _12
	jne	L306	 #,
	jmp	L266	 #
	.p2align 4,,10
L308:
	.loc 1 474 0
	addl	$1, %eax	 #, line
LVL327:
	.loc 1 472 0
	movzbl	(%eax), %edx	 #* line, _12
	testb	%dl, %dl	 # _12
	je	L266	 #,
L306:
	cmpb	$32, %dl	 #, _12
	jle	L308	 #,
L266:
	.loc 1 478 0
	leal	16(%esp), %ebx	 #, cp
LVL328:
	cmpb	$32, %dl	 #, _12
	movl	%ebx, %ecx	 # cp, cp
	jle	L269	 #,
LVL329:
	.p2align 4,,10
L270:
	.loc 1 480 0
	addl	$1, %ecx	 #, cp
LVL330:
	addl	$1, %eax	 #, line
LVL331:
	movb	%dl, -1(%ecx)	 # _12, MEM[base: cp_17, offset: 4294967295B]
	.loc 1 478 0
	movzbl	(%eax), %edx	 # MEM[base: line_19, offset: 0B], _12
	cmpb	$32, %dl	 #, _12
	jg	L270	 #,
LVL332:
L269:
	.loc 1 482 0
	movb	$0, (%ecx)	 #,* cp
LVL333:
LBE302:
LBE301:
	.loc 1 662 0
	cmpb	$0, 16(%esp)	 #, word
	je	L265	 #,
	.p2align 4,,10
L310:
	.loc 1 664 0
	movl	%ebx, 4(%esp)	 # cp,
	movl	%eax, (%esp)	 # line,
	call	_parseword	 #
LVL334:
LBB304:
LBB305:
	.loc 1 472 0
	movzbl	(%eax), %edx	 #* line, _25
	testb	%dl, %dl	 # _25
	jne	L307	 #,
	jmp	L272	 #
LVL335:
	.p2align 4,,10
L309:
	.loc 1 474 0
	addl	$1, %eax	 #, line
LVL336:
	.loc 1 472 0
	movzbl	(%eax), %edx	 #* line, _25
	testb	%dl, %dl	 # _25
	je	L272	 #,
L307:
	cmpb	$32, %dl	 #, _25
	jle	L309	 #,
L272:
	.loc 1 478 0
	cmpb	$32, %dl	 #, _25
	movl	%ebx, %ecx	 # cp, cp
	jle	L269	 #,
LVL337:
	.p2align 4,,10
L276:
	.loc 1 480 0
	addl	$1, %ecx	 #, cp
LVL338:
	addl	$1, %eax	 #, line
LVL339:
	movb	%dl, -1(%ecx)	 # _25, MEM[base: cp_30, offset: 4294967295B]
	.loc 1 478 0
	movzbl	(%eax), %edx	 # MEM[base: line_32, offset: 0B], _25
	cmpb	$32, %dl	 #, _25
	jg	L276	 #,
LBE305:
LBE304:
LBB306:
LBB303:
	.loc 1 482 0
	movb	$0, (%ecx)	 #,* cp
LVL340:
LBE303:
LBE306:
	.loc 1 662 0
	cmpb	$0, 16(%esp)	 #, word
	jne	L310	 #,
LVL341:
L265:
	.loc 1 667 0
	addl	$88, %esp	 #,
	.cfi_def_cfa_offset 8
	popl	%ebx	 #
	.cfi_restore 3
	.cfi_def_cfa_offset 4
	ret
	.cfi_endproc
LFE84:
	.section .rdata,"dr"
LC17:
	.ascii "memory: 0x%08lX\12\0"
LC18:
	.ascii "Tests: push() ...\0"
LC19:
	.ascii " pop() ... \0"
LC20:
	.ascii " %d.%d seconds\12\0"
LC21:
	.ascii "test0\0"
LC22:
	.ascii "\12%lx\0"
LC23:
	.ascii "test1\0"
LC24:
	.ascii " %lx\0"
LC25:
	.ascii "test3\0"
	.text
	.p2align 4,,15
	.globl	_doTest
	.def	_doTest;	.scl	2;	.type	32;	.endef
_doTest:
LFB85:
	.loc 1 670 0
	.cfi_startproc
	pushl	%ebp	 #
	.cfi_def_cfa_offset 8
	.cfi_offset 5, -8
	pushl	%edi	 #
	.cfi_def_cfa_offset 12
	.cfi_offset 7, -12
	pushl	%ebx	 #
	.cfi_def_cfa_offset 16
	.cfi_offset 3, -16
	subl	$32, %esp	 #,
	.cfi_def_cfa_offset 48
	.loc 1 672 0
	movl	_the_memory, %eax	 # the_memory, the_memory
	movl	$LC17, (%esp)	 #,
	movl	%eax, 4(%esp)	 # the_memory,
	call	_printf	 #
LVL342:
	.loc 1 676 0
	call	_GetTickCount@0	 #
LVL343:
	.loc 1 678 0
	movl	$LC18, (%esp)	 #,
	.loc 1 676 0
	movl	%eax, 28(%esp)	 #, %sfp
LVL344:
	.loc 1 678 0
	call	_printf	 #
LVL345:
	movl	_DSP, %eax	 # DSP, prephitmp_130
	movl	_DSE, %edi	 # DSE, pretmp_131
LBB330:
	.loc 1 679 0
	movl	$1, %edx	 #, i
LBB331:
LBB332:
	.loc 1 119 0
	movl	_DSS, %ebx	 # DSS, DSS.4_39
LVL346:
	.p2align 4,,10
L314:
	.loc 1 118 0
	addl	$4, %eax	 #, _37
	movl	%ebx, %ecx	 # DSS.4_39, _37
	cmpl	%edi, %eax	 # pretmp_131, _37
	ja	L313	 #,
	movl	%eax, %ecx	 # _37, _37
L313:
	.loc 1 120 0
	movl	%edx, (%ecx)	 # i, *prephitmp_133
LBE332:
LBE331:
	.loc 1 679 0
	addl	$1, %edx	 #, i
LVL347:
	movl	%ecx, %eax	 # _37, prephitmp_130
	cmpl	$50000001, %edx	 #, i
	jne	L314	 #,
LBE330:
	.loc 1 683 0
	movl	$LC19, (%esp)	 #,
	movl	%ecx, _DSP	 # _37, DSP
LBB333:
LBB334:
LBB335:
	.loc 1 128 0
	movl	$50000000, %ebx	 #, ivtmp_72
LBE335:
LBE334:
LBE333:
	.loc 1 683 0
	call	_printf	 #
LVL348:
	movl	_DSS, %ebp	 # DSS, pretmp_135
	movl	_DSP, %eax	 # DSP, prephitmp_138
LBB338:
LBB337:
LBB336:
	.loc 1 128 0
	movl	_DSE, %edi	 # DSE, DSE.7_45
LVL349:
	.p2align 4,,10
L317:
	.loc 1 126 0
	movl	(%eax), %ecx	 # *prephitmp_153, v
	.loc 1 127 0
	subl	$4, %eax	 #, _43
	movl	%edi, %edx	 # DSE.7_45, _43
	cmpl	%ebp, %eax	 # pretmp_135, _43
	jb	L316	 #,
	movl	%eax, %edx	 # _43, _43
L316:
LBE336:
LBE337:
	.loc 1 684 0
	subl	$1, %ebx	 #, ivtmp_72
	movl	%edx, %eax	 # _43, prephitmp_138
	.loc 1 686 0
	movl	%ecx, _tmp	 # v, tmp
	.loc 1 684 0
	jne	L317	 #,
	movl	%edx, _DSP	 # _43, DSP
LBE338:
LBB339:
LBB340:
	.loc 1 136 0
	movl	$8, %edi	 #, ivtmp_62
LBE340:
LBE339:
	.loc 1 688 0
	call	_GetTickCount@0	 #
LVL350:
	.loc 1 689 0
	subl	28(%esp), %eax	 # %sfp, end
LVL351:
	.loc 1 690 0
	movl	$274877907, %edx	 #, tmp141
	movl	$LC20, (%esp)	 #,
	.loc 1 689 0
	movl	%eax, %ecx	 # end, tt
LVL352:
	.loc 1 690 0
	mull	%edx	 # tmp141
LVL353:
	shrl	$6, %edx	 #, tmp139
	imull	$1000, %edx, %eax	 #, tmp139, tmp142
	movl	%edx, 4(%esp)	 # tmp139,
	subl	%eax, %ecx	 # tmp142, tmp143
LVL354:
	movl	%ecx, 8(%esp)	 # tmp143,
	call	_printf	 #
LVL355:
LBB347:
LBB344:
	.loc 1 136 0
	movl	$LC0, (%esp)	 #,
	call	_printf	 #
LVL356:
	.p2align 4,,10
L319:
LBB341:
LBB342:
LBB343:
	.loc 1 126 0
	movl	_DSP, %eax	 # DSP, DSP.5_83
	movl	(%eax), %edx	 # *DSP.5_83, v
LVL357:
	.loc 1 127 0
	subl	$4, %eax	 #, _85
	cmpl	_DSS, %eax	 # DSS, _85
	movl	%eax, _DSP	 # _85, DSP
	jnb	L318	 #,
	.loc 1 128 0
	movl	_DSE, %eax	 # DSE, DSE
	movl	%eax, _DSP	 # DSE, DSP
L318:
LVL358:
LBE343:
LBE342:
	.loc 1 138 0
	movl	%edx, 4(%esp)	 # v,
	movl	$LC1, (%esp)	 #,
	call	_printf	 #
LVL359:
	.loc 1 137 0
	subl	$1, %edi	 #, ivtmp_62
	jne	L319	 #,
LBE341:
	.loc 1 139 0
	movl	$41, (%esp)	 #,
	call	_putchar	 #
LVL360:
LBE344:
LBE347:
	.loc 1 691 0
	movl	$10, (%esp)	 #,
	call	_putchar	 #
LVL361:
LBB348:
LBB349:
	.loc 1 441 0
	movl	_num_words, %eax	 # num_words, i
LVL362:
	leal	(%eax,%eax,8), %ebp	 #, tmp150
	sall	$2, %ebp	 #, ivtmp.250
	testl	%eax, %eax	 # i
	jle	L324	 #,
	movl	%eax, %edi	 # i, i
	movl	%ebx, 28(%esp)	 # ivtmp_72, %sfp
LVL363:
	jmp	L323	 #
LVL364:
	.p2align 4,,10
L322:
	subl	$36, %ebp	 #, ivtmp.250
	subl	$1, %edi	 #, i
LVL365:
	je	L344	 #,
LVL366:
L323:
LBB350:
	.loc 1 443 0
	movl	_the_dict, %ebx	 # the_dict, ep
	.loc 1 444 0
	movl	$LC21, (%esp)	 #,
	.loc 1 443 0
	addl	%ebp, %ebx	 # ivtmp.250, ep
LVL367:
	.loc 1 444 0
	leal	5(%ebx), %eax	 #, tmp153
	movl	%eax, 4(%esp)	 # tmp153,
	call	__stricmp	 #
LVL368:
	testl	%eax, %eax	 # _80
	jne	L322	 #,
	movl	%ebx, %edi	 # ep, ep
LVL369:
	movl	28(%esp), %ebx	 # %sfp, ivtmp_72
LVL370:
	movl	%edi, %edx	 # ep, _142
	jmp	L321	 #
LVL371:
L344:
	movl	28(%esp), %ebx	 # %sfp, ivtmp_72
LVL372:
L324:
LBE350:
LBE349:
LBE348:
LBB351:
LBB345:
	.loc 1 136 0
	xorl	%edx, %edx	 # _142
L321:
LVL373:
LBE345:
LBE351:
	.loc 1 700 0
	movl	%edx, 4(%esp)	 # _142,
	movl	$LC22, (%esp)	 #,
	call	_printf	 #
LVL374:
LBB352:
LBB353:
	.loc 1 441 0
	movl	_num_words, %eax	 # num_words, i
LVL375:
	leal	(%eax,%eax,8), %ebp	 #, tmp156
	sall	$2, %ebp	 #, ivtmp.245
	testl	%eax, %eax	 # i
	jle	L329	 #,
	movl	%eax, %edi	 # i, i
	movl	%ebx, 28(%esp)	 # ivtmp_72, %sfp
	jmp	L328	 #
LVL376:
	.p2align 4,,10
L327:
	subl	$36, %ebp	 #, ivtmp.245
	subl	$1, %edi	 #, i
LVL377:
	je	L345	 #,
LVL378:
L328:
LBB354:
	.loc 1 443 0
	movl	_the_dict, %ebx	 # the_dict, ep
	.loc 1 444 0
	movl	$LC23, (%esp)	 #,
	.loc 1 443 0
	addl	%ebp, %ebx	 # ivtmp.245, ep
LVL379:
	.loc 1 444 0
	leal	5(%ebx), %eax	 #, tmp159
	movl	%eax, 4(%esp)	 # tmp159,
	call	__stricmp	 #
LVL380:
	testl	%eax, %eax	 # _70
	jne	L327	 #,
	movl	%ebx, %edi	 # ep, ep
LVL381:
	movl	28(%esp), %ebx	 # %sfp, ivtmp_72
LVL382:
	movl	%edi, %edx	 # ep, _146
	jmp	L326	 #
LVL383:
L345:
	movl	28(%esp), %ebx	 # %sfp, ivtmp_72
LVL384:
L329:
LBE354:
LBE353:
LBE352:
LBB355:
LBB346:
	.loc 1 136 0
	xorl	%edx, %edx	 # _146
L326:
LVL385:
LBE346:
LBE355:
	.loc 1 701 0
	movl	%edx, 4(%esp)	 # _146,
	movl	$LC24, (%esp)	 #,
	call	_printf	 #
LVL386:
LBB356:
LBB357:
	.loc 1 441 0
	movl	_num_words, %eax	 # num_words, i
LVL387:
	leal	(%eax,%eax,8), %ebp	 #, tmp162
	sall	$2, %ebp	 #, ivtmp.240
	testl	%eax, %eax	 # i
	jle	L331	 #,
	movl	%eax, %edi	 # i, i
	movl	%ebx, 28(%esp)	 # ivtmp_72, %sfp
	jmp	L333	 #
LVL388:
	.p2align 4,,10
L332:
	subl	$36, %ebp	 #, ivtmp.240
	subl	$1, %edi	 #, i
LVL389:
	je	L346	 #,
LVL390:
L333:
LBB358:
	.loc 1 443 0
	movl	_the_dict, %ebx	 # the_dict, ep
	.loc 1 444 0
	movl	$LC25, (%esp)	 #,
	.loc 1 443 0
	addl	%ebp, %ebx	 # ivtmp.240, ep
LVL391:
	.loc 1 444 0
	leal	5(%ebx), %eax	 #, tmp165
	movl	%eax, 4(%esp)	 # tmp165,
	call	__stricmp	 #
LVL392:
	testl	%eax, %eax	 # _60
	jne	L332	 #,
LVL393:
L331:
LBE358:
LBE357:
LBE356:
	.loc 1 702 0
	movl	%ebx, 4(%esp)	 # ivtmp_72,
	movl	$LC24, (%esp)	 #,
	call	_printf	 #
LVL394:
	.loc 1 703 0
	addl	$32, %esp	 #,
	.cfi_remember_state
	.cfi_def_cfa_offset 16
	popl	%ebx	 #
	.cfi_restore 3
	.cfi_def_cfa_offset 12
	popl	%edi	 #
	.cfi_restore 7
	.cfi_def_cfa_offset 8
	popl	%ebp	 #
	.cfi_restore 5
	.cfi_def_cfa_offset 4
	ret
LVL395:
L346:
	.cfi_restore_state
	movl	28(%esp), %ebx	 # %sfp, ivtmp_72
LVL396:
	jmp	L331	 #
	.cfi_endproc
LFE85:
	.section .rdata,"dr"
LC26:
	.ascii "rt\0"
LC27:
	.ascii "mf.src\0"
LC28:
	.ascii "\12%02x, %-8s\0"
LC29:
	.ascii "can't open input file!\0"
	.text
	.p2align 4,,15
	.globl	_compile
	.def	_compile;	.scl	2;	.type	32;	.endef
_compile:
LFB86:
	.loc 1 706 0
	.cfi_startproc
	pushl	%edi	 #
	.cfi_def_cfa_offset 8
	.cfi_offset 7, -8
	pushl	%ebx	 #
	.cfi_def_cfa_offset 12
	.cfi_offset 3, -12
	movl	$_theOpcodes, %ebx	 #, ivtmp.290
	subl	$340, %esp	 #,
	.cfi_def_cfa_offset 352
	.loc 1 707 0
	movl	_the_memory, %eax	 # the_memory, the_memory.73_5
	.loc 1 708 0
	leal	1(%eax), %edx	 #, tmp129
	movl	%edx, _HERE	 # tmp129, HERE
	movb	$10, (%eax)	 #, *the_memory.73_5
	.loc 1 709 0
	movl	_HERE, %eax	 # HERE, HERE
LBB369:
LBB370:
	.loc 1 713 0
	movl	_theOpcodes, %edx	 # MEM[(struct  *)&theOpcodes], op$asm_instr
LBE370:
LBE369:
	.loc 1 709 0
	movl	$-286331154, (%eax)	 #, *HERE.78_12
	addl	$4, _HERE	 #, HERE
LVL397:
LBB372:
LBB371:
	.loc 1 714 0
	testl	%edx, %edx	 # op$asm_instr
	.loc 1 713 0
	movzbl	_theOpcodes+4, %eax	 # MEM[(struct  *)&theOpcodes + 4B],
LVL398:
	.loc 1 714 0
	je	L351	 #,
LVL399:
L391:
	.loc 1 718 0
	movl	%edx, 8(%esp)	 # op$asm_instr,
	movl	%eax, 4(%esp)	 # op$opcode,
	addl	$8, %ebx	 #, ivtmp.290
	movl	$LC28, (%esp)	 #,
	call	_printf	 #
LVL400:
	.loc 1 713 0
	movl	(%ebx), %edx	 # MEM[base: _68, offset: 8B], op$asm_instr
LVL401:
	movzbl	4(%ebx), %eax	 # MEM[base: _136, offset: 4B],
LVL402:
	.loc 1 714 0
	testl	%edx, %edx	 # op$asm_instr
	jne	L391	 #,
L351:
LVL403:
LBE371:
LBE372:
	.loc 1 721 0
	call	_doTest	 #
LVL404:
LBB373:
LBB374:
	.loc 1 108 0
	movl	$LC26, 4(%esp)	 #,
	movl	$LC27, (%esp)	 #,
	call	_fopen	 #
LVL405:
LBE374:
LBE373:
	.loc 1 725 0
	testl	%eax, %eax	 # fp
LBB376:
LBB375:
	.loc 1 109 0
	movl	%eax, _input_fp	 # fp, input_fp
LVL406:
LBE375:
LBE376:
	.loc 1 725 0
	je	L349	 #,
	leal	80(%esp), %edi	 #, line
LBB377:
LBB378:
LBB379:
LBB380:
	.loc 1 478 0
	leal	16(%esp), %ebx	 #, cp
	.p2align 4,,10
L350:
LBE380:
LBE379:
LBE378:
LBE377:
	.loc 1 732 0
	movl	%eax, 8(%esp)	 # fp,
	movl	$256, 4(%esp)	 #,
	movl	%edi, (%esp)	 # line,
	call	_fgets	 #
LVL407:
	cmpl	%edi, %eax	 # line, _25
	jne	L365	 #,
LVL408:
LBB391:
LBB389:
LBB384:
LBB381:
	.loc 1 472 0
	movzbl	80(%esp), %edx	 # MEM[(char *)&buf], _49
	testb	%dl, %dl	 # _49
	je	L371	 #,
	cmpb	$32, %dl	 #, _49
	movl	%edi, %eax	 # line, line
	jle	L385	 #,
LVL409:
	jmp	L371	 #
	.p2align 4,,10
L401:
	cmpb	$32, %dl	 #, _49
	jg	L368	 #,
L385:
	.loc 1 474 0
	addl	$1, %eax	 #, line
LVL410:
	.loc 1 472 0
	movzbl	(%eax), %edx	 # MEM[base: line_48, offset: 0B], _49
	testb	%dl, %dl	 # _49
	jne	L401	 #,
L368:
LVL411:
	.loc 1 478 0
	cmpb	$32, %dl	 #, _49
	movl	%ebx, %ecx	 # cp, cp
	jle	L355	 #,
LVL412:
	.p2align 4,,10
L356:
	.loc 1 480 0
	addl	$1, %ecx	 #, cp
LVL413:
	addl	$1, %eax	 #, line
LVL414:
	movb	%dl, -1(%ecx)	 # _49, MEM[base: cp_54, offset: 4294967295B]
	.loc 1 478 0
	movzbl	(%eax), %edx	 # MEM[base: line_56, offset: 0B], _49
	cmpb	$32, %dl	 #, _49
	jg	L356	 #,
LVL415:
L355:
	.loc 1 482 0
	movb	$0, (%ecx)	 #,* cp
LVL416:
LBE381:
LBE384:
	.loc 1 662 0
	cmpb	$0, 16(%esp)	 #, word
	je	L402	 #,
	.p2align 4,,10
L384:
	.loc 1 664 0
	movl	%ebx, 4(%esp)	 # cp,
	movl	%eax, (%esp)	 # line,
	call	_parseword	 #
LVL417:
LBB385:
LBB386:
	.loc 1 472 0
	movzbl	(%eax), %edx	 # *line_59, _62
	cmpb	$32, %dl	 #, _62
	jg	L358	 #,
	testb	%dl, %dl	 # _62
	jne	L359	 #,
	jmp	L358	 #
LVL418:
	.p2align 4,,10
L403:
	cmpb	$32, %dl	 #, _62
	jg	L358	 #,
L359:
	.loc 1 474 0
	addl	$1, %eax	 #, line
LVL419:
	.loc 1 472 0
	movzbl	(%eax), %edx	 # MEM[base: line_61, offset: 0B], _62
	testb	%dl, %dl	 # _62
	jne	L403	 #,
L358:
	.loc 1 478 0
	cmpb	$32, %dl	 #, _62
	movl	%ebx, %ecx	 # cp, cp
	jle	L355	 #,
LVL420:
	.p2align 4,,10
L362:
	.loc 1 480 0
	addl	$1, %ecx	 #, cp
LVL421:
	addl	$1, %eax	 #, line
LVL422:
	movb	%dl, -1(%ecx)	 # _62, MEM[base: cp_67, offset: 4294967295B]
	.loc 1 478 0
	movzbl	(%eax), %edx	 # MEM[base: line_69, offset: 0B], _62
	cmpb	$32, %dl	 #, _62
	jg	L362	 #,
LBE386:
LBE385:
LBB387:
LBB382:
	.loc 1 482 0
	movb	$0, (%ecx)	 #,* cp
LVL423:
LBE382:
LBE387:
	.loc 1 662 0
	cmpb	$0, 16(%esp)	 #, word
	jne	L384	 #,
LVL424:
L402:
	movl	_input_fp, %eax	 # input_fp, fp
LVL425:
	jmp	L350	 #
L365:
LBE389:
LBE391:
	.loc 1 738 0
	movl	_num_words, %eax	 # num_words, num_words
	movl	_the_dict, %edx	 # the_dict,
	leal	(%eax,%eax,8), %eax	 #, tmp158
	leal	(%edx,%eax,4), %eax	 #, tmp160
	movl	(%eax), %edx	 # _33->xt, _34
	movl	_the_memory, %eax	 # the_memory, the_memory
	movl	%edx, 1(%eax)	 # _34, MEM[(CELL *)the_memory.73_27 + 1B]
	.loc 1 740 0
	movl	_input_fp, %eax	 # input_fp, input_fp
	movl	%eax, (%esp)	 # input_fp,
	call	_fclose	 #
LVL426:
	.loc 1 741 0
	movl	$0, _input_fp	 #, input_fp
	.loc 1 742 0
	addl	$340, %esp	 #,
	.cfi_remember_state
	.cfi_def_cfa_offset 12
	popl	%ebx	 #
	.cfi_restore 3
	.cfi_def_cfa_offset 8
	popl	%edi	 #
	.cfi_restore 7
	.cfi_def_cfa_offset 4
	ret
LVL427:
L371:
	.cfi_restore_state
LBB392:
LBB390:
LBB388:
LBB383:
	.loc 1 472 0
	movl	%edi, %eax	 # line, line
	jmp	L368	 #
LVL428:
L349:
LBE383:
LBE388:
LBE390:
LBE392:
	.loc 1 727 0
	movl	$LC29, (%esp)	 #,
	call	_printf	 #
LVL429:
	.loc 1 728 0
	movl	$1, (%esp)	 #,
	call	_exit	 #
LVL430:
	.cfi_endproc
LFE86:
	.section .rdata,"dr"
LC30:
	.ascii "wb\0"
LC31:
	.ascii "mf.bin\0"
	.align 4
LC32:
	.ascii "ERROR: Can't open output file!\0"
LC33:
	.ascii "\12%s, %d bytes written.\12\0"
	.text
	.p2align 4,,15
	.globl	_write_output_file
	.def	_write_output_file;	.scl	2;	.type	32;	.endef
_write_output_file:
LFB87:
	.loc 1 746 0
	.cfi_startproc
LVL431:
	pushl	%ebx	 #
	.cfi_def_cfa_offset 8
	.cfi_offset 3, -8
	subl	$24, %esp	 #,
	.cfi_def_cfa_offset 32
LBB399:
LBB400:
	.loc 1 108 0
	movl	$LC30, 4(%esp)	 #,
	movl	$LC31, (%esp)	 #,
	call	_fopen	 #
LVL432:
LBE400:
LBE399:
	.loc 1 748 0
	testl	%eax, %eax	 # fp
LBB402:
LBB401:
	.loc 1 109 0
	movl	%eax, _output_fp	 # fp, output_fp
LVL433:
LBE401:
LBE402:
	.loc 1 748 0
	je	L407	 #,
	.loc 1 754 0
	movl	%eax, 12(%esp)	 # fp,
	movl	_MEM_SZ, %eax	 # MEM_SZ, MEM_SZ
	movl	$1, 4(%esp)	 #,
	movl	%eax, 8(%esp)	 # MEM_SZ,
	movl	_the_memory, %eax	 # the_memory, the_memory
	movl	%eax, (%esp)	 # the_memory,
	call	_fwrite	 #
LVL434:
	movl	%eax, %ebx	 #, _6
LVL435:
	.loc 1 755 0
	movl	_output_fp, %eax	 # output_fp, output_fp
LVL436:
	movl	%eax, (%esp)	 # output_fp,
	call	_fclose	 #
LVL437:
	.loc 1 757 0
	movl	%ebx, 8(%esp)	 # _6,
	movl	$LC31, 4(%esp)	 #,
	movl	$LC33, (%esp)	 #,
	.loc 1 756 0
	movl	$0, _output_fp	 #, output_fp
	.loc 1 757 0
	call	_printf	 #
LVL438:
	.loc 1 758 0
	addl	$24, %esp	 #,
	.cfi_remember_state
	.cfi_def_cfa_offset 8
	popl	%ebx	 #
	.cfi_restore 3
	.cfi_def_cfa_offset 4
LVL439:
	ret
L407:
	.cfi_restore_state
LBB403:
LBB404:
	.loc 1 750 0
	movl	$LC32, (%esp)	 #,
	call	_printf	 #
LVL440:
	.loc 1 751 0
	movl	$1, (%esp)	 #,
	call	_exit	 #
LVL441:
LBE404:
LBE403:
	.cfi_endproc
LFE87:
	.def	___main;	.scl	2;	.type	32;	.endef
	.section .rdata,"dr"
LC34:
	.ascii " %d.%03d seconds\12\0"
	.section	.text.startup,"x"
	.p2align 4,,15
	.globl	_main
	.def	_main;	.scl	2;	.type	32;	.endef
_main:
LFB88:
	.loc 1 761 0
	.cfi_startproc
LVL442:
	leal	4(%esp), %ecx	 #,
	.cfi_def_cfa 1, 0
	andl	$-16, %esp	 #,
	pushl	-4(%ecx)	 #
	pushl	%ebp	 #
	.cfi_escape 0x10,0x5,0x2,0x75,0
	movl	%esp, %ebp	 #,
	pushl	%ebx	 #
	pushl	%ecx	 #
	.cfi_escape 0xf,0x3,0x75,0x78,0x6
	.cfi_escape 0x10,0x3,0x2,0x75,0x7c
	subl	$16, %esp	 #,
	.loc 1 761 0
	call	___main	 #
LVL443:
	.loc 1 762 0
	movl	$-10, (%esp)	 #,
	call	_GetStdHandle@4	 #
LVL444:
	subl	$4, %esp	 #,
	movl	%eax, _hStdin	 # _4, hStdin
	.loc 1 763 0
	movl	$-11, (%esp)	 #,
	call	_GetStdHandle@4	 #
LVL445:
	movl	%eax, _hStdout	 # _7, hStdout
	.loc 1 765 0
	movl	_MEM_SZ, %eax	 # MEM_SZ, MEM_SZ
	.loc 1 763 0
	subl	$4, %esp	 #,
	.loc 1 765 0
	movl	$1, 4(%esp)	 #,
	movl	%eax, (%esp)	 # MEM_SZ,
	call	_calloc	 #
LVL446:
	.loc 1 769 0
	movl	$1, 4(%esp)	 #,
	movl	$73728, (%esp)	 #,
	.loc 1 765 0
	movl	%eax, _the_memory	 # tmp104, the_memory
LVL447:
	.loc 1 769 0
	call	_calloc	 #
LVL448:
	movl	%eax, _the_dict	 # tmp105, the_dict
	.loc 1 772 0
	call	_compile	 #
LVL449:
	.loc 1 773 0
	call	_write_output_file	 #
LVL450:
	.loc 1 774 0
	call	_dump_words	 #
LVL451:
	.loc 1 775 0
	movl	$10, (%esp)	 #,
	call	_putchar	 #
LVL452:
	.loc 1 777 0
	call	_GetTickCount@0	 #
LVL453:
	movl	%eax, %ebx	 #, st
LVL454:
	.loc 1 778 0
	movl	_all_ok, %eax	 # all_ok,
LVL455:
	testl	%eax, %eax	 #
	je	L409	 #,
	.loc 1 779 0
	movl	_the_memory, %eax	 # the_memory, the_memory
	movl	%eax, (%esp)	 # the_memory,
	call	_run_program	 #
LVL456:
L409:
	.loc 1 780 0
	call	_GetTickCount@0	 #
LVL457:
	.loc 1 782 0
	movl	$274877907, %edx	 #, tmp109
	.loc 1 781 0
	subl	%ebx, %eax	 # st, ee
LVL458:
	.loc 1 782 0
	movl	$LC34, (%esp)	 #,
	.loc 1 781 0
	movl	%eax, %ecx	 # ee, tt
LVL459:
	.loc 1 782 0
	mull	%edx	 # tmp109
LVL460:
	shrl	$6, %edx	 #, tmp107
	imull	$1000, %edx, %eax	 #, tmp107, tmp110
	movl	%edx, 4(%esp)	 # tmp107,
	subl	%eax, %ecx	 # tmp110, tmp111
LVL461:
	movl	%ecx, 8(%esp)	 # tmp111,
	call	_printf	 #
LVL462:
	.loc 1 785 0
	leal	-8(%ebp), %esp	 #,
	xorl	%eax, %eax	 #
	popl	%ecx	 #
	.cfi_restore 1
	.cfi_def_cfa 1, 0
	popl	%ebx	 #
	.cfi_restore 3
LVL463:
	popl	%ebp	 #
	.cfi_restore 5
	leal	-4(%ecx), %esp	 #,
	.cfi_def_cfa 4, 4
	ret
	.cfi_endproc
LFE88:
	.globl	_theOpcodes
	.section .rdata,"dr"
LC35:
	.ascii "nop\0"
LC36:
	.ascii "a\0"
LC37:
	.ascii "@\0"
LC38:
	.ascii "!\0"
LC39:
	.ascii "drop\0"
LC40:
	.ascii "dup\0"
LC41:
	.ascii "a!\0"
LC42:
	.ascii "call\0"
LC43:
	.ascii "emit\0"
LC44:
	.ascii "ret\0"
LC45:
	.ascii "+\0"
LC46:
	.ascii "-\0"
LC47:
	.ascii "*\0"
LC48:
	.ascii "/\0"
LC49:
	.ascii "@+\0"
LC50:
	.ascii "!+\0"
LC51:
	.ascii "+*\0"
LC52:
	.ascii "over\0"
LC53:
	.ascii "until\0"
LC54:
	.ascii "-until\0"
LC55:
	.ascii "invert\0"
LC56:
	.ascii "gotoRC\0"
LC57:
	.ascii "cls\0"
LC58:
	.ascii "T=0\0"
LC59:
	.ascii "C=0\0"
LC60:
	.ascii "(:)\0"
LC61:
	.ascii ">r\0"
LC62:
	.ascii "r>\0"
LC63:
	.ascii "and\0"
LC64:
	.ascii "xor\0"
LC65:
	.ascii "2*\0"
LC66:
	.ascii "2/\0"
LC67:
	.ascii "1+\0"
LC68:
	.ascii "1-\0"
LC69:
	.ascii "\0"
LC70:
	.ascii "bye\0"
	.data
	.align 32
_theOpcodes:
 # asm_instr:
	.long	LC35
 # opcode:
	.byte	0
	.space 3
 # asm_instr:
	.long	LC36
 # opcode:
	.byte	1
	.space 3
 # asm_instr:
	.long	LC37
 # opcode:
	.byte	2
	.space 3
 # asm_instr:
	.long	LC38
 # opcode:
	.byte	3
	.space 3
 # asm_instr:
	.long	LC39
 # opcode:
	.byte	4
	.space 3
 # asm_instr:
	.long	LC40
 # opcode:
	.byte	5
	.space 3
 # asm_instr:
	.long	LC41
 # opcode:
	.byte	6
	.space 3
 # asm_instr:
	.long	LC15
 # opcode:
	.byte	10
	.space 3
 # asm_instr:
	.long	LC42
 # opcode:
	.byte	11
	.space 3
 # asm_instr:
	.long	LC43
 # opcode:
	.byte	7
	.space 3
 # asm_instr:
	.long	LC10
 # opcode:
	.byte	12
	.space 3
 # asm_instr:
	.long	LC44
 # opcode:
	.byte	12
	.space 3
 # asm_instr:
	.long	LC45
 # opcode:
	.byte	13
	.space 3
 # asm_instr:
	.long	LC46
 # opcode:
	.byte	14
	.space 3
 # asm_instr:
	.long	LC47
 # opcode:
	.byte	15
	.space 3
 # asm_instr:
	.long	LC48
 # opcode:
	.byte	16
	.space 3
 # asm_instr:
	.long	LC49
 # opcode:
	.byte	17
	.space 3
 # asm_instr:
	.long	LC50
 # opcode:
	.byte	18
	.space 3
 # asm_instr:
	.long	LC51
 # opcode:
	.byte	19
	.space 3
 # asm_instr:
	.long	LC52
 # opcode:
	.byte	20
	.space 3
 # asm_instr:
	.long	LC53
 # opcode:
	.byte	21
	.space 3
 # asm_instr:
	.long	LC54
 # opcode:
	.byte	22
	.space 3
 # asm_instr:
	.long	LC55
 # opcode:
	.byte	23
	.space 3
 # asm_instr:
	.long	LC56
 # opcode:
	.byte	26
	.space 3
 # asm_instr:
	.long	LC57
 # opcode:
	.byte	27
	.space 3
 # asm_instr:
	.long	LC58
 # opcode:
	.byte	24
	.space 3
 # asm_instr:
	.long	LC59
 # opcode:
	.byte	25
	.space 3
 # asm_instr:
	.long	LC60
 # opcode:
	.byte	29
	.space 3
 # asm_instr:
	.long	LC61
 # opcode:
	.byte	30
	.space 3
 # asm_instr:
	.long	LC62
 # opcode:
	.byte	31
	.space 3
 # asm_instr:
	.long	LC63
 # opcode:
	.byte	32
	.space 3
 # asm_instr:
	.long	LC64
 # opcode:
	.byte	33
	.space 3
 # asm_instr:
	.long	LC65
 # opcode:
	.byte	34
	.space 3
 # asm_instr:
	.long	LC66
 # opcode:
	.byte	35
	.space 3
 # asm_instr:
	.long	LC67
 # opcode:
	.byte	8
	.space 3
 # asm_instr:
	.long	LC68
 # opcode:
	.byte	9
	.space 3
 # asm_instr:
	.long	LC69
 # opcode:
	.byte	28
	.space 3
 # asm_instr:
	.long	LC70
 # opcode:
	.byte	36
	.space 3
 # asm_instr:
	.long	0
 # opcode:
	.byte	0
	.space 3
	.globl	_all_ok
	.align 4
_all_ok:
	.long	1
	.comm	__QUIT_HIT, 4, 2
	.globl	_num_words
	.bss
	.align 4
_num_words:
	.space 4
	.globl	_the_dict
	.align 4
_the_dict:
	.space 4
	.globl	_the_memory
	.align 4
_the_memory:
	.space 4
	.globl	_RSP
	.data
	.align 4
_RSP:
	.long	_rstk
	.globl	_RSE
	.align 4
_RSE:
	.long	_rstk+252
	.globl	_RSS
	.align 4
_RSS:
	.long	_rstk
	.comm	_rstk, 256, 5
	.globl	_DSP
	.align 4
_DSP:
	.long	_dstk
	.globl	_DSE
	.align 4
_DSE:
	.long	_dstk+252
	.globl	_DSS
	.align 4
_DSS:
	.long	_dstk
	.comm	_dstk, 256, 5
	.globl	_call_depth
	.bss
	.align 4
_call_depth:
	.space 4
	.comm	_tmp, 4, 2
	.comm	_addr, 4, 2
	.globl	_BASE
	.data
	.align 4
_BASE:
	.long	10
	.globl	_STATE
	.bss
	.align 4
_STATE:
	.space 4
	.comm	_HERE, 4, 2
	.globl	_output_fp
	.align 4
_output_fp:
	.space 4
	.globl	_input_fp
	.align 4
_input_fp:
	.space 4
	.comm	_csbi, 22, 2
	.comm	_hStdin, 4, 2
	.comm	_hStdout, 4, 2
	.comm	_OPCODES, 4, 2
	.globl	_MEM_SZ
	.data
	.align 4
_MEM_SZ:
	.long	1024
	.text
Letext0:
	.file 2 "c:/mingw/include/windef.h"
	.file 3 "c:/mingw/lib/gcc/mingw32/6.3.0/include/stddef.h"
	.file 4 "c:/mingw/include/winnt.h"
	.file 5 "c:/mingw/include/wincon.h"
	.file 6 "c:/mingw/include/basetyps.h"
	.file 7 "c:/mingw/include/unknwn.h"
	.file 8 "c:/mingw/include/stdlib.h"
	.file 9 "c:/mingw/include/objidl.h"
	.file 10 "c:/mingw/include/cguid.h"
	.file 11 "c:/mingw/include/olectlid.h"
	.file 12 "c:/mingw/include/oaidl.h"
	.file 13 "c:/mingw/include/stdio.h"
	.file 14 "c:/mingw/include/ctype.h"
	.file 15 "c:/mingw/include/winsock.h"
	.file 16 "<built-in>"
	.file 17 "c:/mingw/include/winbase.h"
	.file 18 "c:/mingw/include/string.h"
	.file 19 "c:/mingw/include/wtypes.h"
	.file 20 "c:/mingw/include/strings.h"